
main:     file format elf64-x86-64


Disassembly of section .init:

0000000000007fb8 <_init>:
    7fb8:	48 83 ec 08          	sub    $0x8,%rsp
    7fbc:	48 8b 05 0d fd 23 00 	mov    0x23fd0d(%rip),%rax        # 247cd0 <_GLOBAL_OFFSET_TABLE_+0x328>
    7fc3:	48 85 c0             	test   %rax,%rax
    7fc6:	74 05                	je     7fcd <_init+0x15>
    7fc8:	e8 3b 00 00 00       	callq  8008 <_init+0x50>
    7fcd:	48 83 c4 08          	add    $0x8,%rsp
    7fd1:	c3                   	retq   

Disassembly of section .plt:

0000000000007fe0 <.plt>:
    7fe0:	ff 35 ca f9 23 00    	pushq  0x23f9ca(%rip)        # 2479b0 <_GLOBAL_OFFSET_TABLE_+0x8>
    7fe6:	ff 25 cc f9 23 00    	jmpq   *0x23f9cc(%rip)        # 2479b8 <_GLOBAL_OFFSET_TABLE_+0x10>
    7fec:	0f 1f 40 00          	nopl   0x0(%rax)

Disassembly of section .plt.got:

0000000000007ff0 <.plt.got>:
    7ff0:	ff 25 6a fc 23 00    	jmpq   *0x23fc6a(%rip)        # 247c60 <_GLOBAL_OFFSET_TABLE_+0x2b8>
    7ff6:	66 90                	xchg   %ax,%ax
    7ff8:	ff 25 6a fc 23 00    	jmpq   *0x23fc6a(%rip)        # 247c68 <_GLOBAL_OFFSET_TABLE_+0x2c0>
    7ffe:	66 90                	xchg   %ax,%ax
    8000:	ff 25 82 fc 23 00    	jmpq   *0x23fc82(%rip)        # 247c88 <_GLOBAL_OFFSET_TABLE_+0x2e0>
    8006:	66 90                	xchg   %ax,%ax
    8008:	ff 25 c2 fc 23 00    	jmpq   *0x23fcc2(%rip)        # 247cd0 <_GLOBAL_OFFSET_TABLE_+0x328>
    800e:	66 90                	xchg   %ax,%ax
    8010:	ff 25 ea fc 23 00    	jmpq   *0x23fcea(%rip)        # 247d00 <_GLOBAL_OFFSET_TABLE_+0x358>
    8016:	66 90                	xchg   %ax,%ax
    8018:	ff 25 72 ff 23 00    	jmpq   *0x23ff72(%rip)        # 247f90 <_GLOBAL_OFFSET_TABLE_+0x5e8>
    801e:	66 90                	xchg   %ax,%ax
    8020:	ff 25 92 ff 23 00    	jmpq   *0x23ff92(%rip)        # 247fb8 <_GLOBAL_OFFSET_TABLE_+0x610>
    8026:	66 90                	xchg   %ax,%ax

Disassembly of section .text:

0000000000008030 <_ZN4core5slice4sort14break_patterns17h0836ab4d5dcccdffE>:
    8030:	53                   	push   %rbx
    8031:	48 83 ec 20          	sub    $0x20,%rsp
    8035:	48 83 fe 08          	cmp    $0x8,%rsi
    8039:	0f 82 d5 01 00 00    	jb     8214 <_ZN4core5slice4sort14break_patterns17h0836ab4d5dcccdffE+0x1e4>
    803f:	48 8d 46 ff          	lea    -0x1(%rsi),%rax
    8043:	48 0f bd c8          	bsr    %rax,%rcx
    8047:	83 f1 3f             	xor    $0x3f,%ecx
    804a:	49 c7 c0 ff ff ff ff 	mov    $0xffffffffffffffff,%r8
    8051:	49 d3 e8             	shr    %cl,%r8
    8054:	49 89 f2             	mov    %rsi,%r10
    8057:	49 d1 ea             	shr    %r10
    805a:	4d 89 d3             	mov    %r10,%r11
    805d:	49 83 e3 fe          	and    $0xfffffffffffffffe,%r11
    8061:	4d 8d 4b ff          	lea    -0x1(%r11),%r9
    8065:	89 f0                	mov    %esi,%eax
    8067:	c1 e0 0d             	shl    $0xd,%eax
    806a:	31 f0                	xor    %esi,%eax
    806c:	89 c1                	mov    %eax,%ecx
    806e:	c1 e9 11             	shr    $0x11,%ecx
    8071:	31 c1                	xor    %eax,%ecx
    8073:	89 c8                	mov    %ecx,%eax
    8075:	c1 e0 05             	shl    $0x5,%eax
    8078:	31 c8                	xor    %ecx,%eax
    807a:	89 c1                	mov    %eax,%ecx
    807c:	c1 e1 0d             	shl    $0xd,%ecx
    807f:	31 c1                	xor    %eax,%ecx
    8081:	48 c1 e0 20          	shl    $0x20,%rax
    8085:	89 ca                	mov    %ecx,%edx
    8087:	c1 ea 11             	shr    $0x11,%edx
    808a:	31 ca                	xor    %ecx,%edx
    808c:	89 d3                	mov    %edx,%ebx
    808e:	c1 e3 05             	shl    $0x5,%ebx
    8091:	31 d3                	xor    %edx,%ebx
    8093:	48 01 d8             	add    %rbx,%rax
    8096:	4c 21 c0             	and    %r8,%rax
    8099:	31 d2                	xor    %edx,%edx
    809b:	48 39 f0             	cmp    %rsi,%rax
    809e:	48 0f 43 d6          	cmovae %rsi,%rdx
    80a2:	49 39 f1             	cmp    %rsi,%r9
    80a5:	0f 83 89 01 00 00    	jae    8234 <_ZN4core5slice4sort14break_patterns17h0836ab4d5dcccdffE+0x204>
    80ab:	48 29 d0             	sub    %rdx,%rax
    80ae:	48 39 f0             	cmp    %rsi,%rax
    80b1:	0f 83 63 01 00 00    	jae    821a <_ZN4core5slice4sort14break_patterns17h0836ab4d5dcccdffE+0x1ea>
    80b7:	4b 8d 14 49          	lea    (%r9,%r9,2),%rdx
    80bb:	48 8d 04 40          	lea    (%rax,%rax,2),%rax
    80bf:	48 8b 4c d7 10       	mov    0x10(%rdi,%rdx,8),%rcx
    80c4:	48 89 4c 24 10       	mov    %rcx,0x10(%rsp)
    80c9:	0f 10 04 d7          	movups (%rdi,%rdx,8),%xmm0
    80cd:	0f 29 04 24          	movaps %xmm0,(%rsp)
    80d1:	48 8b 4c c7 10       	mov    0x10(%rdi,%rax,8),%rcx
    80d6:	0f 10 04 c7          	movups (%rdi,%rax,8),%xmm0
    80da:	0f 11 04 d7          	movups %xmm0,(%rdi,%rdx,8)
    80de:	48 89 4c d7 10       	mov    %rcx,0x10(%rdi,%rdx,8)
    80e3:	48 8b 4c 24 10       	mov    0x10(%rsp),%rcx
    80e8:	48 89 4c c7 10       	mov    %rcx,0x10(%rdi,%rax,8)
    80ed:	0f 28 04 24          	movaps (%rsp),%xmm0
    80f1:	0f 11 04 c7          	movups %xmm0,(%rdi,%rax,8)
    80f5:	89 d8                	mov    %ebx,%eax
    80f7:	c1 e0 0d             	shl    $0xd,%eax
    80fa:	31 d8                	xor    %ebx,%eax
    80fc:	89 c1                	mov    %eax,%ecx
    80fe:	c1 e9 11             	shr    $0x11,%ecx
    8101:	31 c1                	xor    %eax,%ecx
    8103:	89 c8                	mov    %ecx,%eax
    8105:	c1 e0 05             	shl    $0x5,%eax
    8108:	31 c8                	xor    %ecx,%eax
    810a:	89 c1                	mov    %eax,%ecx
    810c:	c1 e1 0d             	shl    $0xd,%ecx
    810f:	31 c1                	xor    %eax,%ecx
    8111:	48 c1 e0 20          	shl    $0x20,%rax
    8115:	89 ca                	mov    %ecx,%edx
    8117:	c1 ea 11             	shr    $0x11,%edx
    811a:	31 ca                	xor    %ecx,%edx
    811c:	89 d1                	mov    %edx,%ecx
    811e:	c1 e1 05             	shl    $0x5,%ecx
    8121:	31 d1                	xor    %edx,%ecx
    8123:	48 01 c8             	add    %rcx,%rax
    8126:	4c 21 c0             	and    %r8,%rax
    8129:	31 d2                	xor    %edx,%edx
    812b:	48 39 f0             	cmp    %rsi,%rax
    812e:	48 0f 43 d6          	cmovae %rsi,%rdx
    8132:	49 39 f3             	cmp    %rsi,%r11
    8135:	0f 83 f1 00 00 00    	jae    822c <_ZN4core5slice4sort14break_patterns17h0836ab4d5dcccdffE+0x1fc>
    813b:	48 29 d0             	sub    %rdx,%rax
    813e:	48 39 f0             	cmp    %rsi,%rax
    8141:	0f 83 d3 00 00 00    	jae    821a <_ZN4core5slice4sort14break_patterns17h0836ab4d5dcccdffE+0x1ea>
    8147:	4b 8d 14 5b          	lea    (%r11,%r11,2),%rdx
    814b:	48 8d 04 40          	lea    (%rax,%rax,2),%rax
    814f:	48 8b 5c d7 10       	mov    0x10(%rdi,%rdx,8),%rbx
    8154:	48 89 5c 24 10       	mov    %rbx,0x10(%rsp)
    8159:	0f 10 04 d7          	movups (%rdi,%rdx,8),%xmm0
    815d:	0f 29 04 24          	movaps %xmm0,(%rsp)
    8161:	48 8b 5c c7 10       	mov    0x10(%rdi,%rax,8),%rbx
    8166:	0f 10 04 c7          	movups (%rdi,%rax,8),%xmm0
    816a:	0f 11 04 d7          	movups %xmm0,(%rdi,%rdx,8)
    816e:	48 89 5c d7 10       	mov    %rbx,0x10(%rdi,%rdx,8)
    8173:	48 8b 54 24 10       	mov    0x10(%rsp),%rdx
    8178:	48 89 54 c7 10       	mov    %rdx,0x10(%rdi,%rax,8)
    817d:	0f 28 04 24          	movaps (%rsp),%xmm0
    8181:	0f 11 04 c7          	movups %xmm0,(%rdi,%rax,8)
    8185:	89 c8                	mov    %ecx,%eax
    8187:	c1 e0 0d             	shl    $0xd,%eax
    818a:	31 c8                	xor    %ecx,%eax
    818c:	89 c1                	mov    %eax,%ecx
    818e:	c1 e9 11             	shr    $0x11,%ecx
    8191:	31 c1                	xor    %eax,%ecx
    8193:	89 c8                	mov    %ecx,%eax
    8195:	c1 e0 05             	shl    $0x5,%eax
    8198:	31 c8                	xor    %ecx,%eax
    819a:	89 c1                	mov    %eax,%ecx
    819c:	c1 e1 0d             	shl    $0xd,%ecx
    819f:	31 c1                	xor    %eax,%ecx
    81a1:	48 89 c2             	mov    %rax,%rdx
    81a4:	48 c1 e2 20          	shl    $0x20,%rdx
    81a8:	89 cb                	mov    %ecx,%ebx
    81aa:	c1 eb 11             	shr    $0x11,%ebx
    81ad:	31 cb                	xor    %ecx,%ebx
    81af:	89 d8                	mov    %ebx,%eax
    81b1:	c1 e0 05             	shl    $0x5,%eax
    81b4:	31 d8                	xor    %ebx,%eax
    81b6:	48 09 d0             	or     %rdx,%rax
    81b9:	4c 21 c0             	and    %r8,%rax
    81bc:	31 c9                	xor    %ecx,%ecx
    81be:	48 39 f0             	cmp    %rsi,%rax
    81c1:	48 0f 43 ce          	cmovae %rsi,%rcx
    81c5:	49 83 ca 01          	or     $0x1,%r10
    81c9:	49 39 f2             	cmp    %rsi,%r10
    81cc:	73 63                	jae    8231 <_ZN4core5slice4sort14break_patterns17h0836ab4d5dcccdffE+0x201>
    81ce:	48 29 c8             	sub    %rcx,%rax
    81d1:	48 39 f0             	cmp    %rsi,%rax
    81d4:	73 44                	jae    821a <_ZN4core5slice4sort14break_patterns17h0836ab4d5dcccdffE+0x1ea>
    81d6:	4b 8d 0c 52          	lea    (%r10,%r10,2),%rcx
    81da:	48 8d 04 40          	lea    (%rax,%rax,2),%rax
    81de:	48 8b 54 cf 10       	mov    0x10(%rdi,%rcx,8),%rdx
    81e3:	48 89 54 24 10       	mov    %rdx,0x10(%rsp)
    81e8:	0f 10 04 cf          	movups (%rdi,%rcx,8),%xmm0
    81ec:	0f 29 04 24          	movaps %xmm0,(%rsp)
    81f0:	48 8b 54 c7 10       	mov    0x10(%rdi,%rax,8),%rdx
    81f5:	0f 10 04 c7          	movups (%rdi,%rax,8),%xmm0
    81f9:	0f 11 04 cf          	movups %xmm0,(%rdi,%rcx,8)
    81fd:	48 89 54 cf 10       	mov    %rdx,0x10(%rdi,%rcx,8)
    8202:	48 8b 4c 24 10       	mov    0x10(%rsp),%rcx
    8207:	48 89 4c c7 10       	mov    %rcx,0x10(%rdi,%rax,8)
    820c:	0f 28 04 24          	movaps (%rsp),%xmm0
    8210:	0f 11 04 c7          	movups %xmm0,(%rdi,%rax,8)
    8214:	48 83 c4 20          	add    $0x20,%rsp
    8218:	5b                   	pop    %rbx
    8219:	c3                   	retq   
    821a:	48 8d 15 df d4 23 00 	lea    0x23d4df(%rip),%rdx        # 245700 <__JCR_END__+0x238>
    8221:	48 89 c7             	mov    %rax,%rdi
    8224:	ff 15 2e f9 23 00    	callq  *0x23f92e(%rip)        # 247b58 <_GLOBAL_OFFSET_TABLE_+0x1b0>
    822a:	0f 0b                	ud2    
    822c:	4d 89 d9             	mov    %r11,%r9
    822f:	eb 03                	jmp    8234 <_ZN4core5slice4sort14break_patterns17h0836ab4d5dcccdffE+0x204>
    8231:	4d 89 d1             	mov    %r10,%r9
    8234:	48 8d 15 ad d4 23 00 	lea    0x23d4ad(%rip),%rdx        # 2456e8 <__JCR_END__+0x220>
    823b:	4c 89 cf             	mov    %r9,%rdi
    823e:	ff 15 14 f9 23 00    	callq  *0x23f914(%rip)        # 247b58 <_GLOBAL_OFFSET_TABLE_+0x1b0>
    8244:	0f 0b                	ud2    
    8246:	66 2e 0f 1f 84 00 00 	nopw   %cs:0x0(%rax,%rax,1)
    824d:	00 00 00 

0000000000008250 <_ZN4core5slice4sort22partial_insertion_sort17h85174856cccfbf1cE>:
    8250:	55                   	push   %rbp
    8251:	41 57                	push   %r15
    8253:	41 56                	push   %r14
    8255:	41 55                	push   %r13
    8257:	41 54                	push   %r12
    8259:	53                   	push   %rbx
    825a:	48 83 ec 28          	sub    $0x28,%rsp
    825e:	4c 8d 76 ff          	lea    -0x1(%rsi),%r14
    8262:	4c 8d 47 d0          	lea    -0x30(%rdi),%r8
    8266:	48 8d 47 48          	lea    0x48(%rdi),%rax
    826a:	48 89 44 24 20       	mov    %rax,0x20(%rsp)
    826f:	41 ba 03 00 00 00    	mov    $0x3,%r10d
    8275:	49 29 f2             	sub    %rsi,%r10
    8278:	b9 01 00 00 00       	mov    $0x1,%ecx
    827d:	45 31 db             	xor    %r11d,%r11d
    8280:	eb 2b                	jmp    82ad <_ZN4core5slice4sort22partial_insertion_sort17h85174856cccfbf1cE+0x5d>
    8282:	48 89 d3             	mov    %rdx,%rbx
    8285:	48 8d 04 5b          	lea    (%rbx,%rbx,2),%rax
    8289:	4d 8d 2c c4          	lea    (%r12,%rax,8),%r13
    828d:	49 83 c1 01          	add    $0x1,%r9
    8291:	4d 89 7d 00          	mov    %r15,0x0(%r13)
    8295:	4b 8d 04 49          	lea    (%r9,%r9,2),%rax
    8299:	0f 28 04 24          	movaps (%rsp),%xmm0
    829d:	41 0f 11 44 c4 08    	movups %xmm0,0x8(%r12,%rax,8)
    82a3:	49 83 fb 05          	cmp    $0x5,%r11
    82a7:	0f 84 3b 02 00 00    	je     84e8 <_ZN4core5slice4sort22partial_insertion_sort17h85174856cccfbf1cE+0x298>
    82ad:	48 39 f1             	cmp    %rsi,%rcx
    82b0:	73 4e                	jae    8300 <_ZN4core5slice4sort22partial_insertion_sort17h85174856cccfbf1cE+0xb0>
    82b2:	48 8d 04 49          	lea    (%rcx,%rcx,2),%rax
    82b6:	48 8b 2c c7          	mov    (%rdi,%rax,8),%rbp
    82ba:	b2 01                	mov    $0x1,%dl
    82bc:	48 3b 6c c7 e8       	cmp    -0x18(%rdi,%rax,8),%rbp
    82c1:	72 3f                	jb     8302 <_ZN4core5slice4sort22partial_insertion_sort17h85174856cccfbf1cE+0xb2>
    82c3:	48 8d 04 c7          	lea    (%rdi,%rax,8),%rax
    82c7:	66 0f 1f 84 00 00 00 	nopw   0x0(%rax,%rax,1)
    82ce:	00 00 
    82d0:	49 39 ce             	cmp    %rcx,%r14
    82d3:	0f 84 fe 01 00 00    	je     84d7 <_ZN4core5slice4sort22partial_insertion_sort17h85174856cccfbf1cE+0x287>
    82d9:	48 83 c1 01          	add    $0x1,%rcx
    82dd:	48 8b 50 18          	mov    0x18(%rax),%rdx
    82e1:	48 8d 68 18          	lea    0x18(%rax),%rbp
    82e5:	48 3b 10             	cmp    (%rax),%rdx
    82e8:	48 89 e8             	mov    %rbp,%rax
    82eb:	73 e3                	jae    82d0 <_ZN4core5slice4sort22partial_insertion_sort17h85174856cccfbf1cE+0x80>
    82ed:	48 39 f1             	cmp    %rsi,%rcx
    82f0:	0f 92 c2             	setb   %dl
    82f3:	eb 0d                	jmp    8302 <_ZN4core5slice4sort22partial_insertion_sort17h85174856cccfbf1cE+0xb2>
    82f5:	66 2e 0f 1f 84 00 00 	nopw   %cs:0x0(%rax,%rax,1)
    82fc:	00 00 00 
    82ff:	90                   	nop
    8300:	31 d2                	xor    %edx,%edx
    8302:	48 39 f1             	cmp    %rsi,%rcx
    8305:	0f 94 c0             	sete   %al
    8308:	48 83 fe 32          	cmp    $0x32,%rsi
    830c:	0f 82 c7 01 00 00    	jb     84d9 <_ZN4core5slice4sort22partial_insertion_sort17h85174856cccfbf1cE+0x289>
    8312:	48 39 f1             	cmp    %rsi,%rcx
    8315:	0f 84 be 01 00 00    	je     84d9 <_ZN4core5slice4sort22partial_insertion_sort17h85174856cccfbf1cE+0x289>
    831b:	48 8d 41 ff          	lea    -0x1(%rcx),%rax
    831f:	48 39 f0             	cmp    %rsi,%rax
    8322:	0f 83 c4 01 00 00    	jae    84ec <_ZN4core5slice4sort22partial_insertion_sort17h85174856cccfbf1cE+0x29c>
    8328:	84 d2                	test   %dl,%dl
    832a:	0f 84 ce 01 00 00    	je     84fe <_ZN4core5slice4sort22partial_insertion_sort17h85174856cccfbf1cE+0x2ae>
    8330:	48 8d 04 40          	lea    (%rax,%rax,2),%rax
    8334:	48 8d 2c 49          	lea    (%rcx,%rcx,2),%rbp
    8338:	48 8b 54 c7 10       	mov    0x10(%rdi,%rax,8),%rdx
    833d:	48 89 54 24 10       	mov    %rdx,0x10(%rsp)
    8342:	0f 10 04 c7          	movups (%rdi,%rax,8),%xmm0
    8346:	0f 29 04 24          	movaps %xmm0,(%rsp)
    834a:	48 8b 54 ef 10       	mov    0x10(%rdi,%rbp,8),%rdx
    834f:	48 89 54 c7 10       	mov    %rdx,0x10(%rdi,%rax,8)
    8354:	0f 10 04 ef          	movups (%rdi,%rbp,8),%xmm0
    8358:	0f 11 04 c7          	movups %xmm0,(%rdi,%rax,8)
    835c:	48 8b 54 24 10       	mov    0x10(%rsp),%rdx
    8361:	48 89 54 ef 10       	mov    %rdx,0x10(%rdi,%rbp,8)
    8366:	0f 28 04 24          	movaps (%rsp),%xmm0
    836a:	0f 11 04 ef          	movups %xmm0,(%rdi,%rbp,8)
    836e:	48 83 f9 02          	cmp    $0x2,%rcx
    8372:	0f 82 a8 00 00 00    	jb     8420 <_ZN4core5slice4sort22partial_insertion_sort17h85174856cccfbf1cE+0x1d0>
    8378:	4c 8d 0c c7          	lea    (%rdi,%rax,8),%r9
    837c:	48 8d 59 fe          	lea    -0x2(%rcx),%rbx
    8380:	48 8d 14 5b          	lea    (%rbx,%rbx,2),%rdx
    8384:	4d 8b 39             	mov    (%r9),%r15
    8387:	4c 3b 3c d7          	cmp    (%rdi,%rdx,8),%r15
    838b:	0f 83 8f 00 00 00    	jae    8420 <_ZN4core5slice4sort22partial_insertion_sort17h85174856cccfbf1cE+0x1d0>
    8391:	48 8d 14 d7          	lea    (%rdi,%rdx,8),%rdx
    8395:	0f 10 44 c7 08       	movups 0x8(%rdi,%rax,8),%xmm0
    839a:	0f 29 04 24          	movaps %xmm0,(%rsp)
    839e:	48 8b 42 10          	mov    0x10(%rdx),%rax
    83a2:	49 89 41 10          	mov    %rax,0x10(%r9)
    83a6:	0f 10 02             	movups (%rdx),%xmm0
    83a9:	41 0f 11 01          	movups %xmm0,(%r9)
    83ad:	48 85 db             	test   %rbx,%rbx
    83b0:	74 49                	je     83fb <_ZN4core5slice4sort22partial_insertion_sort17h85174856cccfbf1cE+0x1ab>
    83b2:	4c 3b 7c ef b8       	cmp    -0x48(%rdi,%rbp,8),%r15
    83b7:	73 57                	jae    8410 <_ZN4core5slice4sort22partial_insertion_sort17h85174856cccfbf1cE+0x1c0>
    83b9:	49 8d 04 e8          	lea    (%r8,%rbp,8),%rax
    83bd:	bb 02 00 00 00       	mov    $0x2,%ebx
    83c2:	48 29 cb             	sub    %rcx,%rbx
    83c5:	66 2e 0f 1f 84 00 00 	nopw   %cs:0x0(%rax,%rax,1)
    83cc:	00 00 00 
    83cf:	90                   	nop
    83d0:	48 8b 50 f8          	mov    -0x8(%rax),%rdx
    83d4:	48 89 50 10          	mov    %rdx,0x10(%rax)
    83d8:	0f 10 40 e8          	movups -0x18(%rax),%xmm0
    83dc:	0f 11 00             	movups %xmm0,(%rax)
    83df:	48 83 fb ff          	cmp    $0xffffffffffffffff,%rbx
    83e3:	74 1a                	je     83ff <_ZN4core5slice4sort22partial_insertion_sort17h85174856cccfbf1cE+0x1af>
    83e5:	48 8d 50 e8          	lea    -0x18(%rax),%rdx
    83e9:	48 83 c3 01          	add    $0x1,%rbx
    83ed:	4c 3b 78 d0          	cmp    -0x30(%rax),%r15
    83f1:	48 89 d0             	mov    %rdx,%rax
    83f4:	72 da                	jb     83d0 <_ZN4core5slice4sort22partial_insertion_sort17h85174856cccfbf1cE+0x180>
    83f6:	48 f7 db             	neg    %rbx
    83f9:	eb 15                	jmp    8410 <_ZN4core5slice4sort22partial_insertion_sort17h85174856cccfbf1cE+0x1c0>
    83fb:	31 db                	xor    %ebx,%ebx
    83fd:	eb 11                	jmp    8410 <_ZN4core5slice4sort22partial_insertion_sort17h85174856cccfbf1cE+0x1c0>
    83ff:	31 db                	xor    %ebx,%ebx
    8401:	48 89 fa             	mov    %rdi,%rdx
    8404:	66 2e 0f 1f 84 00 00 	nopw   %cs:0x0(%rax,%rax,1)
    840b:	00 00 00 
    840e:	66 90                	xchg   %ax,%ax
    8410:	4c 89 3a             	mov    %r15,(%rdx)
    8413:	48 8d 04 5b          	lea    (%rbx,%rbx,2),%rax
    8417:	0f 28 04 24          	movaps (%rsp),%xmm0
    841b:	0f 11 44 c7 08       	movups %xmm0,0x8(%rdi,%rax,8)
    8420:	49 83 c3 01          	add    $0x1,%r11
    8424:	48 89 f2             	mov    %rsi,%rdx
    8427:	48 29 ca             	sub    %rcx,%rdx
    842a:	48 83 fa 02          	cmp    $0x2,%rdx
    842e:	0f 82 6f fe ff ff    	jb     82a3 <_ZN4core5slice4sort22partial_insertion_sort17h85174856cccfbf1cE+0x53>
    8434:	4c 8d 24 ef          	lea    (%rdi,%rbp,8),%r12
    8438:	4d 8b 3c 24          	mov    (%r12),%r15
    843c:	4d 39 7c 24 18       	cmp    %r15,0x18(%r12)
    8441:	0f 83 5c fe ff ff    	jae    82a3 <_ZN4core5slice4sort22partial_insertion_sort17h85174856cccfbf1cE+0x53>
    8447:	4d 8d 6c 24 18       	lea    0x18(%r12),%r13
    844c:	0f 10 44 ef 08       	movups 0x8(%rdi,%rbp,8),%xmm0
    8451:	0f 29 04 24          	movaps %xmm0,(%rsp)
    8455:	49 8b 45 10          	mov    0x10(%r13),%rax
    8459:	49 89 44 24 10       	mov    %rax,0x10(%r12)
    845e:	41 0f 10 45 00       	movups 0x0(%r13),%xmm0
    8463:	41 0f 11 04 24       	movups %xmm0,(%r12)
    8468:	41 b9 01 00 00 00    	mov    $0x1,%r9d
    846e:	48 83 fa 03          	cmp    $0x3,%rdx
    8472:	0f 82 19 fe ff ff    	jb     8291 <_ZN4core5slice4sort22partial_insertion_sort17h85174856cccfbf1cE+0x41>
    8478:	4d 39 7c 24 30       	cmp    %r15,0x30(%r12)
    847d:	0f 83 0e fe ff ff    	jae    8291 <_ZN4core5slice4sort22partial_insertion_sort17h85174856cccfbf1cE+0x41>
    8483:	48 83 c2 ff          	add    $0xffffffffffffffff,%rdx
    8487:	48 8b 44 24 20       	mov    0x20(%rsp),%rax
    848c:	48 8d 2c e8          	lea    (%rax,%rbp,8),%rbp
    8490:	4d 8d 2c 0a          	lea    (%r10,%rcx,1),%r13
    8494:	bb 01 00 00 00       	mov    $0x1,%ebx
    8499:	0f 1f 80 00 00 00 00 	nopl   0x0(%rax)
    84a0:	49 89 d9             	mov    %rbx,%r9
    84a3:	4a 8d 04 2b          	lea    (%rbx,%r13,1),%rax
    84a7:	48 8b 5d f8          	mov    -0x8(%rbp),%rbx
    84ab:	48 89 5d e0          	mov    %rbx,-0x20(%rbp)
    84af:	0f 10 45 e8          	movups -0x18(%rbp),%xmm0
    84b3:	0f 11 45 d0          	movups %xmm0,-0x30(%rbp)
    84b7:	48 83 f8 01          	cmp    $0x1,%rax
    84bb:	0f 84 c1 fd ff ff    	je     8282 <_ZN4core5slice4sort22partial_insertion_sort17h85174856cccfbf1cE+0x32>
    84c1:	48 8d 45 18          	lea    0x18(%rbp),%rax
    84c5:	49 8d 59 01          	lea    0x1(%r9),%rbx
    84c9:	4c 39 7d 00          	cmp    %r15,0x0(%rbp)
    84cd:	48 89 c5             	mov    %rax,%rbp
    84d0:	72 ce                	jb     84a0 <_ZN4core5slice4sort22partial_insertion_sort17h85174856cccfbf1cE+0x250>
    84d2:	e9 ae fd ff ff       	jmpq   8285 <_ZN4core5slice4sort22partial_insertion_sort17h85174856cccfbf1cE+0x35>
    84d7:	b0 01                	mov    $0x1,%al
    84d9:	48 83 c4 28          	add    $0x28,%rsp
    84dd:	5b                   	pop    %rbx
    84de:	41 5c                	pop    %r12
    84e0:	41 5d                	pop    %r13
    84e2:	41 5e                	pop    %r14
    84e4:	41 5f                	pop    %r15
    84e6:	5d                   	pop    %rbp
    84e7:	c3                   	retq   
    84e8:	31 c0                	xor    %eax,%eax
    84ea:	eb ed                	jmp    84d9 <_ZN4core5slice4sort22partial_insertion_sort17h85174856cccfbf1cE+0x289>
    84ec:	48 8d 15 f5 d1 23 00 	lea    0x23d1f5(%rip),%rdx        # 2456e8 <__JCR_END__+0x220>
    84f3:	48 89 c7             	mov    %rax,%rdi
    84f6:	ff 15 5c f6 23 00    	callq  *0x23f65c(%rip)        # 247b58 <_GLOBAL_OFFSET_TABLE_+0x1b0>
    84fc:	0f 0b                	ud2    
    84fe:	48 8d 15 fb d1 23 00 	lea    0x23d1fb(%rip),%rdx        # 245700 <__JCR_END__+0x238>
    8505:	48 89 cf             	mov    %rcx,%rdi
    8508:	ff 15 4a f6 23 00    	callq  *0x23f64a(%rip)        # 247b58 <_GLOBAL_OFFSET_TABLE_+0x1b0>
    850e:	0f 0b                	ud2    

0000000000008510 <_ZN4core5slice4sort8heapsort17h2721e1e9f16ee6dfE>:
    8510:	48 83 ec 18          	sub    $0x18,%rsp
    8514:	49 89 f1             	mov    %rsi,%r9
    8517:	49 d1 e9             	shr    %r9
    851a:	75 19                	jne    8535 <_ZN4core5slice4sort8heapsort17h2721e1e9f16ee6dfE+0x25>
    851c:	48 83 fe 02          	cmp    $0x2,%rsi
    8520:	0f 82 e7 01 00 00    	jb     870d <_ZN4core5slice4sort8heapsort17h2721e1e9f16ee6dfE+0x1fd>
    8526:	49 89 f0             	mov    %rsi,%r8
    8529:	e9 dc 00 00 00       	jmpq   860a <_ZN4core5slice4sort8heapsort17h2721e1e9f16ee6dfE+0xfa>
    852e:	66 90                	xchg   %ax,%ax
    8530:	4d 85 c9             	test   %r9,%r9
    8533:	74 e7                	je     851c <_ZN4core5slice4sort8heapsort17h2721e1e9f16ee6dfE+0xc>
    8535:	49 83 c1 ff          	add    $0xffffffffffffffff,%r9
    8539:	4c 89 c9             	mov    %r9,%rcx
    853c:	4c 8d 04 09          	lea    (%rcx,%rcx,1),%r8
    8540:	49 83 c0 01          	add    $0x1,%r8
    8544:	48 8d 04 09          	lea    (%rcx,%rcx,1),%rax
    8548:	48 83 c0 02          	add    $0x2,%rax
    854c:	48 39 f0             	cmp    %rsi,%rax
    854f:	73 30                	jae    8581 <_ZN4core5slice4sort8heapsort17h2721e1e9f16ee6dfE+0x71>
    8551:	66 2e 0f 1f 84 00 00 	nopw   %cs:0x0(%rax,%rax,1)
    8558:	00 00 00 
    855b:	0f 1f 44 00 00       	nopl   0x0(%rax,%rax,1)
    8560:	49 39 f0             	cmp    %rsi,%r8
    8563:	0f 83 d0 01 00 00    	jae    8739 <_ZN4core5slice4sort8heapsort17h2721e1e9f16ee6dfE+0x229>
    8569:	4b 8d 14 40          	lea    (%r8,%r8,2),%rdx
    856d:	4c 8b 14 d7          	mov    (%rdi,%rdx,8),%r10
    8571:	48 8d 14 40          	lea    (%rax,%rax,2),%rdx
    8575:	4c 3b 14 d7          	cmp    (%rdi,%rdx,8),%r10
    8579:	72 03                	jb     857e <_ZN4core5slice4sort8heapsort17h2721e1e9f16ee6dfE+0x6e>
    857b:	4c 89 c0             	mov    %r8,%rax
    857e:	49 89 c0             	mov    %rax,%r8
    8581:	49 39 f0             	cmp    %rsi,%r8
    8584:	73 aa                	jae    8530 <_ZN4core5slice4sort8heapsort17h2721e1e9f16ee6dfE+0x20>
    8586:	48 39 f1             	cmp    %rsi,%rcx
    8589:	0f 83 83 01 00 00    	jae    8712 <_ZN4core5slice4sort8heapsort17h2721e1e9f16ee6dfE+0x202>
    858f:	48 8d 04 49          	lea    (%rcx,%rcx,2),%rax
    8593:	4b 8d 0c 40          	lea    (%r8,%r8,2),%rcx
    8597:	48 8b 14 c7          	mov    (%rdi,%rax,8),%rdx
    859b:	48 3b 14 cf          	cmp    (%rdi,%rcx,8),%rdx
    859f:	73 8f                	jae    8530 <_ZN4core5slice4sort8heapsort17h2721e1e9f16ee6dfE+0x20>
    85a1:	48 8d 04 c7          	lea    (%rdi,%rax,8),%rax
    85a5:	48 8d 0c cf          	lea    (%rdi,%rcx,8),%rcx
    85a9:	48 8b 50 10          	mov    0x10(%rax),%rdx
    85ad:	48 89 54 24 10       	mov    %rdx,0x10(%rsp)
    85b2:	0f 10 00             	movups (%rax),%xmm0
    85b5:	0f 29 04 24          	movaps %xmm0,(%rsp)
    85b9:	48 8b 51 10          	mov    0x10(%rcx),%rdx
    85bd:	0f 10 01             	movups (%rcx),%xmm0
    85c0:	0f 11 00             	movups %xmm0,(%rax)
    85c3:	48 89 50 10          	mov    %rdx,0x10(%rax)
    85c7:	48 8b 44 24 10       	mov    0x10(%rsp),%rax
    85cc:	48 89 41 10          	mov    %rax,0x10(%rcx)
    85d0:	0f 28 04 24          	movaps (%rsp),%xmm0
    85d4:	0f 11 01             	movups %xmm0,(%rcx)
    85d7:	4c 89 c1             	mov    %r8,%rcx
    85da:	4c 8d 04 09          	lea    (%rcx,%rcx,1),%r8
    85de:	49 83 c0 01          	add    $0x1,%r8
    85e2:	48 8d 04 09          	lea    (%rcx,%rcx,1),%rax
    85e6:	48 83 c0 02          	add    $0x2,%rax
    85ea:	48 39 f0             	cmp    %rsi,%rax
    85ed:	0f 82 6d ff ff ff    	jb     8560 <_ZN4core5slice4sort8heapsort17h2721e1e9f16ee6dfE+0x50>
    85f3:	eb 8c                	jmp    8581 <_ZN4core5slice4sort8heapsort17h2721e1e9f16ee6dfE+0x71>
    85f5:	66 2e 0f 1f 84 00 00 	nopw   %cs:0x0(%rax,%rax,1)
    85fc:	00 00 00 
    85ff:	90                   	nop
    8600:	49 83 f8 01          	cmp    $0x1,%r8
    8604:	0f 86 03 01 00 00    	jbe    870d <_ZN4core5slice4sort8heapsort17h2721e1e9f16ee6dfE+0x1fd>
    860a:	49 83 c0 ff          	add    $0xffffffffffffffff,%r8
    860e:	49 39 f0             	cmp    %rsi,%r8
    8611:	0f 83 49 01 00 00    	jae    8760 <_ZN4core5slice4sort8heapsort17h2721e1e9f16ee6dfE+0x250>
    8617:	4b 8d 04 40          	lea    (%r8,%r8,2),%rax
    861b:	48 8b 4f 10          	mov    0x10(%rdi),%rcx
    861f:	48 89 4c 24 10       	mov    %rcx,0x10(%rsp)
    8624:	0f 10 07             	movups (%rdi),%xmm0
    8627:	0f 29 04 24          	movaps %xmm0,(%rsp)
    862b:	48 8b 4c c7 10       	mov    0x10(%rdi,%rax,8),%rcx
    8630:	0f 10 04 c7          	movups (%rdi,%rax,8),%xmm0
    8634:	0f 11 07             	movups %xmm0,(%rdi)
    8637:	48 89 4f 10          	mov    %rcx,0x10(%rdi)
    863b:	48 8b 4c 24 10       	mov    0x10(%rsp),%rcx
    8640:	48 89 4c c7 10       	mov    %rcx,0x10(%rdi,%rax,8)
    8645:	0f 28 04 24          	movaps (%rsp),%xmm0
    8649:	0f 11 04 c7          	movups %xmm0,(%rdi,%rax,8)
    864d:	31 c9                	xor    %ecx,%ecx
    864f:	4c 8d 0c 09          	lea    (%rcx,%rcx,1),%r9
    8653:	49 83 c1 01          	add    $0x1,%r9
    8657:	48 8d 14 09          	lea    (%rcx,%rcx,1),%rdx
    865b:	48 83 c2 02          	add    $0x2,%rdx
    865f:	4c 39 c2             	cmp    %r8,%rdx
    8662:	73 2d                	jae    8691 <_ZN4core5slice4sort8heapsort17h2721e1e9f16ee6dfE+0x181>
    8664:	66 2e 0f 1f 84 00 00 	nopw   %cs:0x0(%rax,%rax,1)
    866b:	00 00 00 
    866e:	66 90                	xchg   %ax,%ax
    8670:	4d 39 c1             	cmp    %r8,%r9
    8673:	0f 83 d2 00 00 00    	jae    874b <_ZN4core5slice4sort8heapsort17h2721e1e9f16ee6dfE+0x23b>
    8679:	4b 8d 04 49          	lea    (%r9,%r9,2),%rax
    867d:	4c 8b 14 c7          	mov    (%rdi,%rax,8),%r10
    8681:	48 8d 04 52          	lea    (%rdx,%rdx,2),%rax
    8685:	4c 3b 14 c7          	cmp    (%rdi,%rax,8),%r10
    8689:	72 03                	jb     868e <_ZN4core5slice4sort8heapsort17h2721e1e9f16ee6dfE+0x17e>
    868b:	4c 89 ca             	mov    %r9,%rdx
    868e:	49 89 d1             	mov    %rdx,%r9
    8691:	4d 39 c1             	cmp    %r8,%r9
    8694:	0f 83 66 ff ff ff    	jae    8600 <_ZN4core5slice4sort8heapsort17h2721e1e9f16ee6dfE+0xf0>
    869a:	4c 39 c1             	cmp    %r8,%rcx
    869d:	0f 83 81 00 00 00    	jae    8724 <_ZN4core5slice4sort8heapsort17h2721e1e9f16ee6dfE+0x214>
    86a3:	48 8d 0c 49          	lea    (%rcx,%rcx,2),%rcx
    86a7:	4b 8d 14 49          	lea    (%r9,%r9,2),%rdx
    86ab:	48 8b 04 cf          	mov    (%rdi,%rcx,8),%rax
    86af:	48 3b 04 d7          	cmp    (%rdi,%rdx,8),%rax
    86b3:	0f 83 47 ff ff ff    	jae    8600 <_ZN4core5slice4sort8heapsort17h2721e1e9f16ee6dfE+0xf0>
    86b9:	48 8d 04 cf          	lea    (%rdi,%rcx,8),%rax
    86bd:	48 8d 0c d7          	lea    (%rdi,%rdx,8),%rcx
    86c1:	48 8b 50 10          	mov    0x10(%rax),%rdx
    86c5:	48 89 54 24 10       	mov    %rdx,0x10(%rsp)
    86ca:	0f 10 00             	movups (%rax),%xmm0
    86cd:	0f 29 04 24          	movaps %xmm0,(%rsp)
    86d1:	48 8b 51 10          	mov    0x10(%rcx),%rdx
    86d5:	0f 10 01             	movups (%rcx),%xmm0
    86d8:	0f 11 00             	movups %xmm0,(%rax)
    86db:	48 89 50 10          	mov    %rdx,0x10(%rax)
    86df:	48 8b 44 24 10       	mov    0x10(%rsp),%rax
    86e4:	48 89 41 10          	mov    %rax,0x10(%rcx)
    86e8:	0f 28 04 24          	movaps (%rsp),%xmm0
    86ec:	0f 11 01             	movups %xmm0,(%rcx)
    86ef:	4c 89 c9             	mov    %r9,%rcx
    86f2:	4c 8d 0c 09          	lea    (%rcx,%rcx,1),%r9
    86f6:	49 83 c1 01          	add    $0x1,%r9
    86fa:	48 8d 14 09          	lea    (%rcx,%rcx,1),%rdx
    86fe:	48 83 c2 02          	add    $0x2,%rdx
    8702:	4c 39 c2             	cmp    %r8,%rdx
    8705:	0f 82 65 ff ff ff    	jb     8670 <_ZN4core5slice4sort8heapsort17h2721e1e9f16ee6dfE+0x160>
    870b:	eb 84                	jmp    8691 <_ZN4core5slice4sort8heapsort17h2721e1e9f16ee6dfE+0x181>
    870d:	48 83 c4 18          	add    $0x18,%rsp
    8711:	c3                   	retq   
    8712:	48 8d 15 5f d0 23 00 	lea    0x23d05f(%rip),%rdx        # 245778 <__JCR_END__+0x2b0>
    8719:	48 89 cf             	mov    %rcx,%rdi
    871c:	ff 15 36 f4 23 00    	callq  *0x23f436(%rip)        # 247b58 <_GLOBAL_OFFSET_TABLE_+0x1b0>
    8722:	0f 0b                	ud2    
    8724:	48 8d 15 4d d0 23 00 	lea    0x23d04d(%rip),%rdx        # 245778 <__JCR_END__+0x2b0>
    872b:	48 89 cf             	mov    %rcx,%rdi
    872e:	4c 89 c6             	mov    %r8,%rsi
    8731:	ff 15 21 f4 23 00    	callq  *0x23f421(%rip)        # 247b58 <_GLOBAL_OFFSET_TABLE_+0x1b0>
    8737:	0f 0b                	ud2    
    8739:	48 8d 15 20 d0 23 00 	lea    0x23d020(%rip),%rdx        # 245760 <__JCR_END__+0x298>
    8740:	4c 89 c7             	mov    %r8,%rdi
    8743:	ff 15 0f f4 23 00    	callq  *0x23f40f(%rip)        # 247b58 <_GLOBAL_OFFSET_TABLE_+0x1b0>
    8749:	0f 0b                	ud2    
    874b:	48 8d 15 0e d0 23 00 	lea    0x23d00e(%rip),%rdx        # 245760 <__JCR_END__+0x298>
    8752:	4c 89 cf             	mov    %r9,%rdi
    8755:	4c 89 c6             	mov    %r8,%rsi
    8758:	ff 15 fa f3 23 00    	callq  *0x23f3fa(%rip)        # 247b58 <_GLOBAL_OFFSET_TABLE_+0x1b0>
    875e:	0f 0b                	ud2    
    8760:	48 8d 15 99 cf 23 00 	lea    0x23cf99(%rip),%rdx        # 245700 <__JCR_END__+0x238>
    8767:	4c 89 c7             	mov    %r8,%rdi
    876a:	ff 15 e8 f3 23 00    	callq  *0x23f3e8(%rip)        # 247b58 <_GLOBAL_OFFSET_TABLE_+0x1b0>
    8770:	0f 0b                	ud2    
    8772:	66 2e 0f 1f 84 00 00 	nopw   %cs:0x0(%rax,%rax,1)
    8779:	00 00 00 
    877c:	0f 1f 40 00          	nopl   0x0(%rax)

0000000000008780 <_ZN4core9panicking13assert_failed17h42e9ca9af98440cbE>:
    8780:	48 83 ec 58          	sub    $0x58,%rsp
    8784:	48 89 7c 24 10       	mov    %rdi,0x10(%rsp)
    8789:	48 89 74 24 18       	mov    %rsi,0x18(%rsp)
    878e:	0f 10 02             	movups (%rdx),%xmm0
    8791:	0f 10 4a 10          	movups 0x10(%rdx),%xmm1
    8795:	0f 10 52 20          	movups 0x20(%rdx),%xmm2
    8799:	0f 29 54 24 40       	movaps %xmm2,0x40(%rsp)
    879e:	0f 29 4c 24 30       	movaps %xmm1,0x30(%rsp)
    87a3:	0f 29 44 24 20       	movaps %xmm0,0x20(%rsp)
    87a8:	48 89 0c 24          	mov    %rcx,(%rsp)
    87ac:	48 8d 15 b5 d0 23 00 	lea    0x23d0b5(%rip),%rdx        # 245868 <__JCR_END__+0x3a0>
    87b3:	48 8d 74 24 10       	lea    0x10(%rsp),%rsi
    87b8:	48 8d 4c 24 18       	lea    0x18(%rsp),%rcx
    87bd:	4c 8d 4c 24 20       	lea    0x20(%rsp),%r9
    87c2:	31 ff                	xor    %edi,%edi
    87c4:	49 89 d0             	mov    %rdx,%r8
    87c7:	ff 15 03 f6 23 00    	callq  *0x23f603(%rip)        # 247dd0 <_GLOBAL_OFFSET_TABLE_+0x428>
    87cd:	0f 0b                	ud2    
    87cf:	90                   	nop

00000000000087d0 <_ZN4core9panicking13assert_failed17ha7e0f7f9a60278caE>:
    87d0:	48 83 ec 58          	sub    $0x58,%rsp
    87d4:	48 89 74 24 10       	mov    %rsi,0x10(%rsp)
    87d9:	48 89 54 24 18       	mov    %rdx,0x18(%rsp)
    87de:	0f 10 01             	movups (%rcx),%xmm0
    87e1:	0f 10 49 10          	movups 0x10(%rcx),%xmm1
    87e5:	0f 10 51 20          	movups 0x20(%rcx),%xmm2
    87e9:	0f 29 54 24 40       	movaps %xmm2,0x40(%rsp)
    87ee:	0f 29 4c 24 30       	movaps %xmm1,0x30(%rsp)
    87f3:	0f 29 44 24 20       	movaps %xmm0,0x20(%rsp)
    87f8:	4c 89 04 24          	mov    %r8,(%rsp)
    87fc:	48 8d 15 85 d0 23 00 	lea    0x23d085(%rip),%rdx        # 245888 <__JCR_END__+0x3c0>
    8803:	48 8d 74 24 10       	lea    0x10(%rsp),%rsi
    8808:	48 8d 4c 24 18       	lea    0x18(%rsp),%rcx
    880d:	4c 8d 4c 24 20       	lea    0x20(%rsp),%r9
    8812:	49 89 d0             	mov    %rdx,%r8
    8815:	ff 15 b5 f5 23 00    	callq  *0x23f5b5(%rip)        # 247dd0 <_GLOBAL_OFFSET_TABLE_+0x428>
    881b:	0f 0b                	ud2    
    881d:	0f 1f 00             	nopl   (%rax)

0000000000008820 <_ZN5alloc7raw_vec19RawVec$LT$T$C$A$GT$7reserve21do_reserve_and_handle17h0b6a20783b977c29E>:
    8820:	41 56                	push   %r14
    8822:	53                   	push   %rbx
    8823:	48 83 ec 38          	sub    $0x38,%rsp
    8827:	48 ff c6             	inc    %rsi
    882a:	0f 84 ab 00 00 00    	je     88db <_ZN5alloc7raw_vec19RawVec$LT$T$C$A$GT$7reserve21do_reserve_and_handle17h0b6a20783b977c29E+0xbb>
    8830:	49 89 fe             	mov    %rdi,%r14
    8833:	48 8b 4f 08          	mov    0x8(%rdi),%rcx
    8837:	48 8d 04 09          	lea    (%rcx,%rcx,1),%rax
    883b:	48 39 f0             	cmp    %rsi,%rax
    883e:	48 0f 47 f0          	cmova  %rax,%rsi
    8842:	48 83 fe 04          	cmp    $0x4,%rsi
    8846:	b8 04 00 00 00       	mov    $0x4,%eax
    884b:	48 0f 47 c6          	cmova  %rsi,%rax
    884f:	ba 18 00 00 00       	mov    $0x18,%edx
    8854:	31 db                	xor    %ebx,%ebx
    8856:	48 f7 e2             	mul    %rdx
    8859:	0f 91 c3             	setno  %bl
    885c:	48 c1 e3 03          	shl    $0x3,%rbx
    8860:	48 85 c9             	test   %rcx,%rcx
    8863:	74 20                	je     8885 <_ZN5alloc7raw_vec19RawVec$LT$T$C$A$GT$7reserve21do_reserve_and_handle17h0b6a20783b977c29E+0x65>
    8865:	49 8b 16             	mov    (%r14),%rdx
    8868:	48 c1 e1 03          	shl    $0x3,%rcx
    886c:	48 8d 0c 49          	lea    (%rcx,%rcx,2),%rcx
    8870:	48 89 54 24 20       	mov    %rdx,0x20(%rsp)
    8875:	48 89 4c 24 28       	mov    %rcx,0x28(%rsp)
    887a:	48 c7 44 24 30 08 00 	movq   $0x8,0x30(%rsp)
    8881:	00 00 
    8883:	eb 09                	jmp    888e <_ZN5alloc7raw_vec19RawVec$LT$T$C$A$GT$7reserve21do_reserve_and_handle17h0b6a20783b977c29E+0x6e>
    8885:	48 c7 44 24 20 00 00 	movq   $0x0,0x20(%rsp)
    888c:	00 00 
    888e:	48 8d 7c 24 08       	lea    0x8(%rsp),%rdi
    8893:	48 8d 4c 24 20       	lea    0x20(%rsp),%rcx
    8898:	48 89 c6             	mov    %rax,%rsi
    889b:	48 89 da             	mov    %rbx,%rdx
    889e:	e8 fd 78 00 00       	callq  101a0 <_ZN5alloc7raw_vec11finish_grow17hfb2d69950d1439d0E>
    88a3:	83 7c 24 08 01       	cmpl   $0x1,0x8(%rsp)
    88a8:	74 27                	je     88d1 <_ZN5alloc7raw_vec19RawVec$LT$T$C$A$GT$7reserve21do_reserve_and_handle17h0b6a20783b977c29E+0xb1>
    88aa:	48 b8 ab aa aa aa aa 	movabs $0xaaaaaaaaaaaaaaab,%rax
    88b1:	aa aa aa 
    88b4:	48 f7 64 24 18       	mulq   0x18(%rsp)
    88b9:	48 8b 44 24 10       	mov    0x10(%rsp),%rax
    88be:	49 89 06             	mov    %rax,(%r14)
    88c1:	48 c1 ea 04          	shr    $0x4,%rdx
    88c5:	49 89 56 08          	mov    %rdx,0x8(%r14)
    88c9:	48 83 c4 38          	add    $0x38,%rsp
    88cd:	5b                   	pop    %rbx
    88ce:	41 5e                	pop    %r14
    88d0:	c3                   	retq   
    88d1:	48 8b 74 24 18       	mov    0x18(%rsp),%rsi
    88d6:	48 85 f6             	test   %rsi,%rsi
    88d9:	75 08                	jne    88e3 <_ZN5alloc7raw_vec19RawVec$LT$T$C$A$GT$7reserve21do_reserve_and_handle17h0b6a20783b977c29E+0xc3>
    88db:	ff 15 0f f6 23 00    	callq  *0x23f60f(%rip)        # 247ef0 <_GLOBAL_OFFSET_TABLE_+0x548>
    88e1:	0f 0b                	ud2    
    88e3:	48 8b 7c 24 10       	mov    0x10(%rsp),%rdi
    88e8:	ff 15 72 f1 23 00    	callq  *0x23f172(%rip)        # 247a60 <_GLOBAL_OFFSET_TABLE_+0xb8>
    88ee:	0f 0b                	ud2    

00000000000088f0 <_ZN5alloc7raw_vec19RawVec$LT$T$C$A$GT$7reserve21do_reserve_and_handle17h0c7d9f942b1bdf0cE>:
    88f0:	41 56                	push   %r14
    88f2:	53                   	push   %rbx
    88f3:	48 83 ec 38          	sub    $0x38,%rsp
    88f7:	48 ff c6             	inc    %rsi
    88fa:	0f 84 ab 00 00 00    	je     89ab <_ZN5alloc7raw_vec19RawVec$LT$T$C$A$GT$7reserve21do_reserve_and_handle17h0c7d9f942b1bdf0cE+0xbb>
    8900:	49 89 fe             	mov    %rdi,%r14
    8903:	48 8b 4f 08          	mov    0x8(%rdi),%rcx
    8907:	48 8d 04 09          	lea    (%rcx,%rcx,1),%rax
    890b:	48 39 f0             	cmp    %rsi,%rax
    890e:	48 0f 47 f0          	cmova  %rax,%rsi
    8912:	48 83 fe 04          	cmp    $0x4,%rsi
    8916:	b8 04 00 00 00       	mov    $0x4,%eax
    891b:	48 0f 47 c6          	cmova  %rsi,%rax
    891f:	ba 28 00 00 00       	mov    $0x28,%edx
    8924:	31 db                	xor    %ebx,%ebx
    8926:	48 f7 e2             	mul    %rdx
    8929:	0f 91 c3             	setno  %bl
    892c:	48 c1 e3 03          	shl    $0x3,%rbx
    8930:	48 85 c9             	test   %rcx,%rcx
    8933:	74 20                	je     8955 <_ZN5alloc7raw_vec19RawVec$LT$T$C$A$GT$7reserve21do_reserve_and_handle17h0c7d9f942b1bdf0cE+0x65>
    8935:	49 8b 16             	mov    (%r14),%rdx
    8938:	48 c1 e1 03          	shl    $0x3,%rcx
    893c:	48 8d 0c 89          	lea    (%rcx,%rcx,4),%rcx
    8940:	48 89 54 24 20       	mov    %rdx,0x20(%rsp)
    8945:	48 89 4c 24 28       	mov    %rcx,0x28(%rsp)
    894a:	48 c7 44 24 30 08 00 	movq   $0x8,0x30(%rsp)
    8951:	00 00 
    8953:	eb 09                	jmp    895e <_ZN5alloc7raw_vec19RawVec$LT$T$C$A$GT$7reserve21do_reserve_and_handle17h0c7d9f942b1bdf0cE+0x6e>
    8955:	48 c7 44 24 20 00 00 	movq   $0x0,0x20(%rsp)
    895c:	00 00 
    895e:	48 8d 7c 24 08       	lea    0x8(%rsp),%rdi
    8963:	48 8d 4c 24 20       	lea    0x20(%rsp),%rcx
    8968:	48 89 c6             	mov    %rax,%rsi
    896b:	48 89 da             	mov    %rbx,%rdx
    896e:	e8 2d 78 00 00       	callq  101a0 <_ZN5alloc7raw_vec11finish_grow17hfb2d69950d1439d0E>
    8973:	83 7c 24 08 01       	cmpl   $0x1,0x8(%rsp)
    8978:	74 27                	je     89a1 <_ZN5alloc7raw_vec19RawVec$LT$T$C$A$GT$7reserve21do_reserve_and_handle17h0c7d9f942b1bdf0cE+0xb1>
    897a:	48 b8 cd cc cc cc cc 	movabs $0xcccccccccccccccd,%rax
    8981:	cc cc cc 
    8984:	48 f7 64 24 18       	mulq   0x18(%rsp)
    8989:	48 8b 44 24 10       	mov    0x10(%rsp),%rax
    898e:	49 89 06             	mov    %rax,(%r14)
    8991:	48 c1 ea 05          	shr    $0x5,%rdx
    8995:	49 89 56 08          	mov    %rdx,0x8(%r14)
    8999:	48 83 c4 38          	add    $0x38,%rsp
    899d:	5b                   	pop    %rbx
    899e:	41 5e                	pop    %r14
    89a0:	c3                   	retq   
    89a1:	48 8b 74 24 18       	mov    0x18(%rsp),%rsi
    89a6:	48 85 f6             	test   %rsi,%rsi
    89a9:	75 08                	jne    89b3 <_ZN5alloc7raw_vec19RawVec$LT$T$C$A$GT$7reserve21do_reserve_and_handle17h0c7d9f942b1bdf0cE+0xc3>
    89ab:	ff 15 3f f5 23 00    	callq  *0x23f53f(%rip)        # 247ef0 <_GLOBAL_OFFSET_TABLE_+0x548>
    89b1:	0f 0b                	ud2    
    89b3:	48 8b 7c 24 10       	mov    0x10(%rsp),%rdi
    89b8:	ff 15 a2 f0 23 00    	callq  *0x23f0a2(%rip)        # 247a60 <_GLOBAL_OFFSET_TABLE_+0xb8>
    89be:	0f 0b                	ud2    

00000000000089c0 <_ZN5alloc7raw_vec19RawVec$LT$T$C$A$GT$7reserve21do_reserve_and_handle17h1e996d712b2e1000E>:
    89c0:	41 56                	push   %r14
    89c2:	53                   	push   %rbx
    89c3:	48 83 ec 38          	sub    $0x38,%rsp
    89c7:	48 01 d6             	add    %rdx,%rsi
    89ca:	0f 82 ab 00 00 00    	jb     8a7b <_ZN5alloc7raw_vec19RawVec$LT$T$C$A$GT$7reserve21do_reserve_and_handle17h1e996d712b2e1000E+0xbb>
    89d0:	49 89 fe             	mov    %rdi,%r14
    89d3:	48 8b 4f 08          	mov    0x8(%rdi),%rcx
    89d7:	48 8d 04 09          	lea    (%rcx,%rcx,1),%rax
    89db:	48 39 f0             	cmp    %rsi,%rax
    89de:	48 0f 47 f0          	cmova  %rax,%rsi
    89e2:	48 83 fe 04          	cmp    $0x4,%rsi
    89e6:	b8 04 00 00 00       	mov    $0x4,%eax
    89eb:	48 0f 47 c6          	cmova  %rsi,%rax
    89ef:	ba 18 00 00 00       	mov    $0x18,%edx
    89f4:	31 db                	xor    %ebx,%ebx
    89f6:	48 f7 e2             	mul    %rdx
    89f9:	0f 91 c3             	setno  %bl
    89fc:	48 c1 e3 03          	shl    $0x3,%rbx
    8a00:	48 85 c9             	test   %rcx,%rcx
    8a03:	74 20                	je     8a25 <_ZN5alloc7raw_vec19RawVec$LT$T$C$A$GT$7reserve21do_reserve_and_handle17h1e996d712b2e1000E+0x65>
    8a05:	49 8b 16             	mov    (%r14),%rdx
    8a08:	48 c1 e1 03          	shl    $0x3,%rcx
    8a0c:	48 8d 0c 49          	lea    (%rcx,%rcx,2),%rcx
    8a10:	48 89 54 24 20       	mov    %rdx,0x20(%rsp)
    8a15:	48 89 4c 24 28       	mov    %rcx,0x28(%rsp)
    8a1a:	48 c7 44 24 30 08 00 	movq   $0x8,0x30(%rsp)
    8a21:	00 00 
    8a23:	eb 09                	jmp    8a2e <_ZN5alloc7raw_vec19RawVec$LT$T$C$A$GT$7reserve21do_reserve_and_handle17h1e996d712b2e1000E+0x6e>
    8a25:	48 c7 44 24 20 00 00 	movq   $0x0,0x20(%rsp)
    8a2c:	00 00 
    8a2e:	48 8d 7c 24 08       	lea    0x8(%rsp),%rdi
    8a33:	48 8d 4c 24 20       	lea    0x20(%rsp),%rcx
    8a38:	48 89 c6             	mov    %rax,%rsi
    8a3b:	48 89 da             	mov    %rbx,%rdx
    8a3e:	e8 5d 77 00 00       	callq  101a0 <_ZN5alloc7raw_vec11finish_grow17hfb2d69950d1439d0E>
    8a43:	83 7c 24 08 01       	cmpl   $0x1,0x8(%rsp)
    8a48:	74 27                	je     8a71 <_ZN5alloc7raw_vec19RawVec$LT$T$C$A$GT$7reserve21do_reserve_and_handle17h1e996d712b2e1000E+0xb1>
    8a4a:	48 b8 ab aa aa aa aa 	movabs $0xaaaaaaaaaaaaaaab,%rax
    8a51:	aa aa aa 
    8a54:	48 f7 64 24 18       	mulq   0x18(%rsp)
    8a59:	48 8b 44 24 10       	mov    0x10(%rsp),%rax
    8a5e:	49 89 06             	mov    %rax,(%r14)
    8a61:	48 c1 ea 04          	shr    $0x4,%rdx
    8a65:	49 89 56 08          	mov    %rdx,0x8(%r14)
    8a69:	48 83 c4 38          	add    $0x38,%rsp
    8a6d:	5b                   	pop    %rbx
    8a6e:	41 5e                	pop    %r14
    8a70:	c3                   	retq   
    8a71:	48 8b 74 24 18       	mov    0x18(%rsp),%rsi
    8a76:	48 85 f6             	test   %rsi,%rsi
    8a79:	75 08                	jne    8a83 <_ZN5alloc7raw_vec19RawVec$LT$T$C$A$GT$7reserve21do_reserve_and_handle17h1e996d712b2e1000E+0xc3>
    8a7b:	ff 15 6f f4 23 00    	callq  *0x23f46f(%rip)        # 247ef0 <_GLOBAL_OFFSET_TABLE_+0x548>
    8a81:	0f 0b                	ud2    
    8a83:	48 8b 7c 24 10       	mov    0x10(%rsp),%rdi
    8a88:	ff 15 d2 ef 23 00    	callq  *0x23efd2(%rip)        # 247a60 <_GLOBAL_OFFSET_TABLE_+0xb8>
    8a8e:	0f 0b                	ud2    

0000000000008a90 <_ZN5alloc7raw_vec19RawVec$LT$T$C$A$GT$7reserve21do_reserve_and_handle17h2ee8e2144e7a8e9eE>:
    8a90:	41 56                	push   %r14
    8a92:	53                   	push   %rbx
    8a93:	48 83 ec 38          	sub    $0x38,%rsp
    8a97:	48 ff c6             	inc    %rsi
    8a9a:	0f 84 9d 00 00 00    	je     8b3d <_ZN5alloc7raw_vec19RawVec$LT$T$C$A$GT$7reserve21do_reserve_and_handle17h2ee8e2144e7a8e9eE+0xad>
    8aa0:	49 89 fe             	mov    %rdi,%r14
    8aa3:	48 8b 4f 08          	mov    0x8(%rdi),%rcx
    8aa7:	48 8d 04 09          	lea    (%rcx,%rcx,1),%rax
    8aab:	48 39 f0             	cmp    %rsi,%rax
    8aae:	48 0f 47 f0          	cmova  %rax,%rsi
    8ab2:	48 83 fe 04          	cmp    $0x4,%rsi
    8ab6:	b8 04 00 00 00       	mov    $0x4,%eax
    8abb:	48 0f 47 c6          	cmova  %rsi,%rax
    8abf:	ba 20 00 00 00       	mov    $0x20,%edx
    8ac4:	31 db                	xor    %ebx,%ebx
    8ac6:	48 f7 e2             	mul    %rdx
    8ac9:	0f 91 c3             	setno  %bl
    8acc:	48 c1 e3 03          	shl    $0x3,%rbx
    8ad0:	48 85 c9             	test   %rcx,%rcx
    8ad3:	74 1c                	je     8af1 <_ZN5alloc7raw_vec19RawVec$LT$T$C$A$GT$7reserve21do_reserve_and_handle17h2ee8e2144e7a8e9eE+0x61>
    8ad5:	49 8b 16             	mov    (%r14),%rdx
    8ad8:	48 c1 e1 05          	shl    $0x5,%rcx
    8adc:	48 89 54 24 20       	mov    %rdx,0x20(%rsp)
    8ae1:	48 89 4c 24 28       	mov    %rcx,0x28(%rsp)
    8ae6:	48 c7 44 24 30 08 00 	movq   $0x8,0x30(%rsp)
    8aed:	00 00 
    8aef:	eb 09                	jmp    8afa <_ZN5alloc7raw_vec19RawVec$LT$T$C$A$GT$7reserve21do_reserve_and_handle17h2ee8e2144e7a8e9eE+0x6a>
    8af1:	48 c7 44 24 20 00 00 	movq   $0x0,0x20(%rsp)
    8af8:	00 00 
    8afa:	48 8d 7c 24 08       	lea    0x8(%rsp),%rdi
    8aff:	48 8d 4c 24 20       	lea    0x20(%rsp),%rcx
    8b04:	48 89 c6             	mov    %rax,%rsi
    8b07:	48 89 da             	mov    %rbx,%rdx
    8b0a:	e8 91 76 00 00       	callq  101a0 <_ZN5alloc7raw_vec11finish_grow17hfb2d69950d1439d0E>
    8b0f:	83 7c 24 08 01       	cmpl   $0x1,0x8(%rsp)
    8b14:	74 1d                	je     8b33 <_ZN5alloc7raw_vec19RawVec$LT$T$C$A$GT$7reserve21do_reserve_and_handle17h2ee8e2144e7a8e9eE+0xa3>
    8b16:	48 8b 44 24 10       	mov    0x10(%rsp),%rax
    8b1b:	48 8b 4c 24 18       	mov    0x18(%rsp),%rcx
    8b20:	49 89 06             	mov    %rax,(%r14)
    8b23:	48 c1 e9 05          	shr    $0x5,%rcx
    8b27:	49 89 4e 08          	mov    %rcx,0x8(%r14)
    8b2b:	48 83 c4 38          	add    $0x38,%rsp
    8b2f:	5b                   	pop    %rbx
    8b30:	41 5e                	pop    %r14
    8b32:	c3                   	retq   
    8b33:	48 8b 74 24 18       	mov    0x18(%rsp),%rsi
    8b38:	48 85 f6             	test   %rsi,%rsi
    8b3b:	75 08                	jne    8b45 <_ZN5alloc7raw_vec19RawVec$LT$T$C$A$GT$7reserve21do_reserve_and_handle17h2ee8e2144e7a8e9eE+0xb5>
    8b3d:	ff 15 ad f3 23 00    	callq  *0x23f3ad(%rip)        # 247ef0 <_GLOBAL_OFFSET_TABLE_+0x548>
    8b43:	0f 0b                	ud2    
    8b45:	48 8b 7c 24 10       	mov    0x10(%rsp),%rdi
    8b4a:	ff 15 10 ef 23 00    	callq  *0x23ef10(%rip)        # 247a60 <_GLOBAL_OFFSET_TABLE_+0xb8>
    8b50:	0f 0b                	ud2    
    8b52:	66 2e 0f 1f 84 00 00 	nopw   %cs:0x0(%rax,%rax,1)
    8b59:	00 00 00 
    8b5c:	0f 1f 40 00          	nopl   0x0(%rax)

0000000000008b60 <_ZN5alloc7raw_vec19RawVec$LT$T$C$A$GT$7reserve21do_reserve_and_handle17h3aefe8ea2ed21bdaE>:
    8b60:	41 56                	push   %r14
    8b62:	53                   	push   %rbx
    8b63:	48 83 ec 38          	sub    $0x38,%rsp
    8b67:	48 ff c6             	inc    %rsi
    8b6a:	0f 84 9d 00 00 00    	je     8c0d <_ZN5alloc7raw_vec19RawVec$LT$T$C$A$GT$7reserve21do_reserve_and_handle17h3aefe8ea2ed21bdaE+0xad>
    8b70:	49 89 fe             	mov    %rdi,%r14
    8b73:	48 8b 4f 08          	mov    0x8(%rdi),%rcx
    8b77:	48 8d 04 09          	lea    (%rcx,%rcx,1),%rax
    8b7b:	48 39 f0             	cmp    %rsi,%rax
    8b7e:	48 0f 47 f0          	cmova  %rax,%rsi
    8b82:	48 83 fe 04          	cmp    $0x4,%rsi
    8b86:	b8 04 00 00 00       	mov    $0x4,%eax
    8b8b:	48 0f 47 c6          	cmova  %rsi,%rax
    8b8f:	ba 10 00 00 00       	mov    $0x10,%edx
    8b94:	31 db                	xor    %ebx,%ebx
    8b96:	48 f7 e2             	mul    %rdx
    8b99:	0f 91 c3             	setno  %bl
    8b9c:	48 c1 e3 03          	shl    $0x3,%rbx
    8ba0:	48 85 c9             	test   %rcx,%rcx
    8ba3:	74 1c                	je     8bc1 <_ZN5alloc7raw_vec19RawVec$LT$T$C$A$GT$7reserve21do_reserve_and_handle17h3aefe8ea2ed21bdaE+0x61>
    8ba5:	49 8b 16             	mov    (%r14),%rdx
    8ba8:	48 c1 e1 04          	shl    $0x4,%rcx
    8bac:	48 89 54 24 20       	mov    %rdx,0x20(%rsp)
    8bb1:	48 89 4c 24 28       	mov    %rcx,0x28(%rsp)
    8bb6:	48 c7 44 24 30 08 00 	movq   $0x8,0x30(%rsp)
    8bbd:	00 00 
    8bbf:	eb 09                	jmp    8bca <_ZN5alloc7raw_vec19RawVec$LT$T$C$A$GT$7reserve21do_reserve_and_handle17h3aefe8ea2ed21bdaE+0x6a>
    8bc1:	48 c7 44 24 20 00 00 	movq   $0x0,0x20(%rsp)
    8bc8:	00 00 
    8bca:	48 8d 7c 24 08       	lea    0x8(%rsp),%rdi
    8bcf:	48 8d 4c 24 20       	lea    0x20(%rsp),%rcx
    8bd4:	48 89 c6             	mov    %rax,%rsi
    8bd7:	48 89 da             	mov    %rbx,%rdx
    8bda:	e8 c1 75 00 00       	callq  101a0 <_ZN5alloc7raw_vec11finish_grow17hfb2d69950d1439d0E>
    8bdf:	83 7c 24 08 01       	cmpl   $0x1,0x8(%rsp)
    8be4:	74 1d                	je     8c03 <_ZN5alloc7raw_vec19RawVec$LT$T$C$A$GT$7reserve21do_reserve_and_handle17h3aefe8ea2ed21bdaE+0xa3>
    8be6:	48 8b 44 24 10       	mov    0x10(%rsp),%rax
    8beb:	48 8b 4c 24 18       	mov    0x18(%rsp),%rcx
    8bf0:	49 89 06             	mov    %rax,(%r14)
    8bf3:	48 c1 e9 04          	shr    $0x4,%rcx
    8bf7:	49 89 4e 08          	mov    %rcx,0x8(%r14)
    8bfb:	48 83 c4 38          	add    $0x38,%rsp
    8bff:	5b                   	pop    %rbx
    8c00:	41 5e                	pop    %r14
    8c02:	c3                   	retq   
    8c03:	48 8b 74 24 18       	mov    0x18(%rsp),%rsi
    8c08:	48 85 f6             	test   %rsi,%rsi
    8c0b:	75 08                	jne    8c15 <_ZN5alloc7raw_vec19RawVec$LT$T$C$A$GT$7reserve21do_reserve_and_handle17h3aefe8ea2ed21bdaE+0xb5>
    8c0d:	ff 15 dd f2 23 00    	callq  *0x23f2dd(%rip)        # 247ef0 <_GLOBAL_OFFSET_TABLE_+0x548>
    8c13:	0f 0b                	ud2    
    8c15:	48 8b 7c 24 10       	mov    0x10(%rsp),%rdi
    8c1a:	ff 15 40 ee 23 00    	callq  *0x23ee40(%rip)        # 247a60 <_GLOBAL_OFFSET_TABLE_+0xb8>
    8c20:	0f 0b                	ud2    
    8c22:	66 2e 0f 1f 84 00 00 	nopw   %cs:0x0(%rax,%rax,1)
    8c29:	00 00 00 
    8c2c:	0f 1f 40 00          	nopl   0x0(%rax)

0000000000008c30 <_ZN5alloc7raw_vec19RawVec$LT$T$C$A$GT$7reserve21do_reserve_and_handle17h41eb615cc8558fcbE>:
    8c30:	53                   	push   %rbx
    8c31:	48 83 ec 30          	sub    $0x30,%rsp
    8c35:	48 89 f0             	mov    %rsi,%rax
    8c38:	48 01 d0             	add    %rdx,%rax
    8c3b:	72 75                	jb     8cb2 <_ZN5alloc7raw_vec19RawVec$LT$T$C$A$GT$7reserve21do_reserve_and_handle17h41eb615cc8558fcbE+0x82>
    8c3d:	48 89 fb             	mov    %rdi,%rbx
    8c40:	48 8b 4f 08          	mov    0x8(%rdi),%rcx
    8c44:	48 8d 14 09          	lea    (%rcx,%rcx,1),%rdx
    8c48:	48 39 c2             	cmp    %rax,%rdx
    8c4b:	48 0f 47 c2          	cmova  %rdx,%rax
    8c4f:	48 83 f8 08          	cmp    $0x8,%rax
    8c53:	be 08 00 00 00       	mov    $0x8,%esi
    8c58:	48 0f 47 f0          	cmova  %rax,%rsi
    8c5c:	48 85 c9             	test   %rcx,%rcx
    8c5f:	74 18                	je     8c79 <_ZN5alloc7raw_vec19RawVec$LT$T$C$A$GT$7reserve21do_reserve_and_handle17h41eb615cc8558fcbE+0x49>
    8c61:	48 8b 03             	mov    (%rbx),%rax
    8c64:	48 89 44 24 18       	mov    %rax,0x18(%rsp)
    8c69:	48 89 4c 24 20       	mov    %rcx,0x20(%rsp)
    8c6e:	48 c7 44 24 28 01 00 	movq   $0x1,0x28(%rsp)
    8c75:	00 00 
    8c77:	eb 09                	jmp    8c82 <_ZN5alloc7raw_vec19RawVec$LT$T$C$A$GT$7reserve21do_reserve_and_handle17h41eb615cc8558fcbE+0x52>
    8c79:	48 c7 44 24 18 00 00 	movq   $0x0,0x18(%rsp)
    8c80:	00 00 
    8c82:	48 89 e7             	mov    %rsp,%rdi
    8c85:	48 8d 4c 24 18       	lea    0x18(%rsp),%rcx
    8c8a:	ba 01 00 00 00       	mov    $0x1,%edx
    8c8f:	e8 0c 75 00 00       	callq  101a0 <_ZN5alloc7raw_vec11finish_grow17hfb2d69950d1439d0E>
    8c94:	83 3c 24 01          	cmpl   $0x1,(%rsp)
    8c98:	74 0e                	je     8ca8 <_ZN5alloc7raw_vec19RawVec$LT$T$C$A$GT$7reserve21do_reserve_and_handle17h41eb615cc8558fcbE+0x78>
    8c9a:	0f 10 44 24 08       	movups 0x8(%rsp),%xmm0
    8c9f:	0f 11 03             	movups %xmm0,(%rbx)
    8ca2:	48 83 c4 30          	add    $0x30,%rsp
    8ca6:	5b                   	pop    %rbx
    8ca7:	c3                   	retq   
    8ca8:	48 8b 74 24 10       	mov    0x10(%rsp),%rsi
    8cad:	48 85 f6             	test   %rsi,%rsi
    8cb0:	75 08                	jne    8cba <_ZN5alloc7raw_vec19RawVec$LT$T$C$A$GT$7reserve21do_reserve_and_handle17h41eb615cc8558fcbE+0x8a>
    8cb2:	ff 15 38 f2 23 00    	callq  *0x23f238(%rip)        # 247ef0 <_GLOBAL_OFFSET_TABLE_+0x548>
    8cb8:	0f 0b                	ud2    
    8cba:	48 8b 7c 24 08       	mov    0x8(%rsp),%rdi
    8cbf:	ff 15 9b ed 23 00    	callq  *0x23ed9b(%rip)        # 247a60 <_GLOBAL_OFFSET_TABLE_+0xb8>
    8cc5:	0f 0b                	ud2    
    8cc7:	66 0f 1f 84 00 00 00 	nopw   0x0(%rax,%rax,1)
    8cce:	00 00 

0000000000008cd0 <_ZN5alloc7raw_vec19RawVec$LT$T$C$A$GT$7reserve21do_reserve_and_handle17h485dbf7e44dd4572E>:
    8cd0:	41 56                	push   %r14
    8cd2:	53                   	push   %rbx
    8cd3:	48 83 ec 38          	sub    $0x38,%rsp
    8cd7:	48 ff c6             	inc    %rsi
    8cda:	0f 84 9a 00 00 00    	je     8d7a <_ZN5alloc7raw_vec19RawVec$LT$T$C$A$GT$7reserve21do_reserve_and_handle17h485dbf7e44dd4572E+0xaa>
    8ce0:	49 89 fe             	mov    %rdi,%r14
    8ce3:	48 8b 4f 08          	mov    0x8(%rdi),%rcx
    8ce7:	48 8d 04 09          	lea    (%rcx,%rcx,1),%rax
    8ceb:	48 39 f0             	cmp    %rsi,%rax
    8cee:	48 0f 47 f0          	cmova  %rax,%rsi
    8cf2:	48 83 fe 04          	cmp    $0x4,%rsi
    8cf6:	ba 04 00 00 00       	mov    $0x4,%edx
    8cfb:	48 0f 46 f2          	cmovbe %rdx,%rsi
    8cff:	31 db                	xor    %ebx,%ebx
    8d01:	48 89 f0             	mov    %rsi,%rax
    8d04:	48 f7 e2             	mul    %rdx
    8d07:	0f 91 c3             	setno  %bl
    8d0a:	48 01 db             	add    %rbx,%rbx
    8d0d:	48 85 c9             	test   %rcx,%rcx
    8d10:	74 1c                	je     8d2e <_ZN5alloc7raw_vec19RawVec$LT$T$C$A$GT$7reserve21do_reserve_and_handle17h485dbf7e44dd4572E+0x5e>
    8d12:	49 8b 16             	mov    (%r14),%rdx
    8d15:	48 c1 e1 02          	shl    $0x2,%rcx
    8d19:	48 89 54 24 20       	mov    %rdx,0x20(%rsp)
    8d1e:	48 89 4c 24 28       	mov    %rcx,0x28(%rsp)
    8d23:	48 c7 44 24 30 02 00 	movq   $0x2,0x30(%rsp)
    8d2a:	00 00 
    8d2c:	eb 09                	jmp    8d37 <_ZN5alloc7raw_vec19RawVec$LT$T$C$A$GT$7reserve21do_reserve_and_handle17h485dbf7e44dd4572E+0x67>
    8d2e:	48 c7 44 24 20 00 00 	movq   $0x0,0x20(%rsp)
    8d35:	00 00 
    8d37:	48 8d 7c 24 08       	lea    0x8(%rsp),%rdi
    8d3c:	48 8d 4c 24 20       	lea    0x20(%rsp),%rcx
    8d41:	48 89 c6             	mov    %rax,%rsi
    8d44:	48 89 da             	mov    %rbx,%rdx
    8d47:	e8 54 74 00 00       	callq  101a0 <_ZN5alloc7raw_vec11finish_grow17hfb2d69950d1439d0E>
    8d4c:	83 7c 24 08 01       	cmpl   $0x1,0x8(%rsp)
    8d51:	74 1d                	je     8d70 <_ZN5alloc7raw_vec19RawVec$LT$T$C$A$GT$7reserve21do_reserve_and_handle17h485dbf7e44dd4572E+0xa0>
    8d53:	48 8b 44 24 10       	mov    0x10(%rsp),%rax
    8d58:	48 8b 4c 24 18       	mov    0x18(%rsp),%rcx
    8d5d:	49 89 06             	mov    %rax,(%r14)
    8d60:	48 c1 e9 02          	shr    $0x2,%rcx
    8d64:	49 89 4e 08          	mov    %rcx,0x8(%r14)
    8d68:	48 83 c4 38          	add    $0x38,%rsp
    8d6c:	5b                   	pop    %rbx
    8d6d:	41 5e                	pop    %r14
    8d6f:	c3                   	retq   
    8d70:	48 8b 74 24 18       	mov    0x18(%rsp),%rsi
    8d75:	48 85 f6             	test   %rsi,%rsi
    8d78:	75 08                	jne    8d82 <_ZN5alloc7raw_vec19RawVec$LT$T$C$A$GT$7reserve21do_reserve_and_handle17h485dbf7e44dd4572E+0xb2>
    8d7a:	ff 15 70 f1 23 00    	callq  *0x23f170(%rip)        # 247ef0 <_GLOBAL_OFFSET_TABLE_+0x548>
    8d80:	0f 0b                	ud2    
    8d82:	48 8b 7c 24 10       	mov    0x10(%rsp),%rdi
    8d87:	ff 15 d3 ec 23 00    	callq  *0x23ecd3(%rip)        # 247a60 <_GLOBAL_OFFSET_TABLE_+0xb8>
    8d8d:	0f 0b                	ud2    
    8d8f:	90                   	nop

0000000000008d90 <_ZN5alloc7raw_vec19RawVec$LT$T$C$A$GT$7reserve21do_reserve_and_handle17h560ab051e5df3decE>:
    8d90:	41 56                	push   %r14
    8d92:	53                   	push   %rbx
    8d93:	48 83 ec 38          	sub    $0x38,%rsp
    8d97:	48 ff c6             	inc    %rsi
    8d9a:	0f 84 aa 00 00 00    	je     8e4a <_ZN5alloc7raw_vec19RawVec$LT$T$C$A$GT$7reserve21do_reserve_and_handle17h560ab051e5df3decE+0xba>
    8da0:	49 89 fe             	mov    %rdi,%r14
    8da3:	48 8b 4f 08          	mov    0x8(%rdi),%rcx
    8da7:	48 8d 04 09          	lea    (%rcx,%rcx,1),%rax
    8dab:	48 39 f0             	cmp    %rsi,%rax
    8dae:	48 0f 47 f0          	cmova  %rax,%rsi
    8db2:	48 83 fe 04          	cmp    $0x4,%rsi
    8db6:	b8 04 00 00 00       	mov    $0x4,%eax
    8dbb:	48 0f 47 c6          	cmova  %rsi,%rax
    8dbf:	ba 20 02 00 00       	mov    $0x220,%edx
    8dc4:	31 db                	xor    %ebx,%ebx
    8dc6:	48 f7 e2             	mul    %rdx
    8dc9:	0f 91 c3             	setno  %bl
    8dcc:	48 c1 e3 03          	shl    $0x3,%rbx
    8dd0:	48 85 c9             	test   %rcx,%rcx
    8dd3:	74 1f                	je     8df4 <_ZN5alloc7raw_vec19RawVec$LT$T$C$A$GT$7reserve21do_reserve_and_handle17h560ab051e5df3decE+0x64>
    8dd5:	49 8b 16             	mov    (%r14),%rdx
    8dd8:	48 69 c9 20 02 00 00 	imul   $0x220,%rcx,%rcx
    8ddf:	48 89 54 24 20       	mov    %rdx,0x20(%rsp)
    8de4:	48 89 4c 24 28       	mov    %rcx,0x28(%rsp)
    8de9:	48 c7 44 24 30 08 00 	movq   $0x8,0x30(%rsp)
    8df0:	00 00 
    8df2:	eb 09                	jmp    8dfd <_ZN5alloc7raw_vec19RawVec$LT$T$C$A$GT$7reserve21do_reserve_and_handle17h560ab051e5df3decE+0x6d>
    8df4:	48 c7 44 24 20 00 00 	movq   $0x0,0x20(%rsp)
    8dfb:	00 00 
    8dfd:	48 8d 7c 24 08       	lea    0x8(%rsp),%rdi
    8e02:	48 8d 4c 24 20       	lea    0x20(%rsp),%rcx
    8e07:	48 89 c6             	mov    %rax,%rsi
    8e0a:	48 89 da             	mov    %rbx,%rdx
    8e0d:	e8 8e 73 00 00       	callq  101a0 <_ZN5alloc7raw_vec11finish_grow17hfb2d69950d1439d0E>
    8e12:	83 7c 24 08 01       	cmpl   $0x1,0x8(%rsp)
    8e17:	74 27                	je     8e40 <_ZN5alloc7raw_vec19RawVec$LT$T$C$A$GT$7reserve21do_reserve_and_handle17h560ab051e5df3decE+0xb0>
    8e19:	48 b8 f1 f0 f0 f0 f0 	movabs $0xf0f0f0f0f0f0f0f1,%rax
    8e20:	f0 f0 f0 
    8e23:	48 f7 64 24 18       	mulq   0x18(%rsp)
    8e28:	48 8b 44 24 10       	mov    0x10(%rsp),%rax
    8e2d:	49 89 06             	mov    %rax,(%r14)
    8e30:	48 c1 ea 09          	shr    $0x9,%rdx
    8e34:	49 89 56 08          	mov    %rdx,0x8(%r14)
    8e38:	48 83 c4 38          	add    $0x38,%rsp
    8e3c:	5b                   	pop    %rbx
    8e3d:	41 5e                	pop    %r14
    8e3f:	c3                   	retq   
    8e40:	48 8b 74 24 18       	mov    0x18(%rsp),%rsi
    8e45:	48 85 f6             	test   %rsi,%rsi
    8e48:	75 08                	jne    8e52 <_ZN5alloc7raw_vec19RawVec$LT$T$C$A$GT$7reserve21do_reserve_and_handle17h560ab051e5df3decE+0xc2>
    8e4a:	ff 15 a0 f0 23 00    	callq  *0x23f0a0(%rip)        # 247ef0 <_GLOBAL_OFFSET_TABLE_+0x548>
    8e50:	0f 0b                	ud2    
    8e52:	48 8b 7c 24 10       	mov    0x10(%rsp),%rdi
    8e57:	ff 15 03 ec 23 00    	callq  *0x23ec03(%rip)        # 247a60 <_GLOBAL_OFFSET_TABLE_+0xb8>
    8e5d:	0f 0b                	ud2    
    8e5f:	90                   	nop

0000000000008e60 <_ZN5alloc7raw_vec19RawVec$LT$T$C$A$GT$7reserve21do_reserve_and_handle17h5ac7742dcf187f1cE>:
    8e60:	41 56                	push   %r14
    8e62:	53                   	push   %rbx
    8e63:	48 83 ec 38          	sub    $0x38,%rsp
    8e67:	48 ff c6             	inc    %rsi
    8e6a:	0f 84 9d 00 00 00    	je     8f0d <_ZN5alloc7raw_vec19RawVec$LT$T$C$A$GT$7reserve21do_reserve_and_handle17h5ac7742dcf187f1cE+0xad>
    8e70:	49 89 fe             	mov    %rdi,%r14
    8e73:	48 8b 4f 08          	mov    0x8(%rdi),%rcx
    8e77:	48 8d 04 09          	lea    (%rcx,%rcx,1),%rax
    8e7b:	48 39 f0             	cmp    %rsi,%rax
    8e7e:	48 0f 47 f0          	cmova  %rax,%rsi
    8e82:	48 83 fe 04          	cmp    $0x4,%rsi
    8e86:	b8 04 00 00 00       	mov    $0x4,%eax
    8e8b:	48 0f 47 c6          	cmova  %rsi,%rax
    8e8f:	ba 40 00 00 00       	mov    $0x40,%edx
    8e94:	31 db                	xor    %ebx,%ebx
    8e96:	48 f7 e2             	mul    %rdx
    8e99:	0f 91 c3             	setno  %bl
    8e9c:	48 c1 e3 03          	shl    $0x3,%rbx
    8ea0:	48 85 c9             	test   %rcx,%rcx
    8ea3:	74 1c                	je     8ec1 <_ZN5alloc7raw_vec19RawVec$LT$T$C$A$GT$7reserve21do_reserve_and_handle17h5ac7742dcf187f1cE+0x61>
    8ea5:	49 8b 16             	mov    (%r14),%rdx
    8ea8:	48 c1 e1 06          	shl    $0x6,%rcx
    8eac:	48 89 54 24 20       	mov    %rdx,0x20(%rsp)
    8eb1:	48 89 4c 24 28       	mov    %rcx,0x28(%rsp)
    8eb6:	48 c7 44 24 30 08 00 	movq   $0x8,0x30(%rsp)
    8ebd:	00 00 
    8ebf:	eb 09                	jmp    8eca <_ZN5alloc7raw_vec19RawVec$LT$T$C$A$GT$7reserve21do_reserve_and_handle17h5ac7742dcf187f1cE+0x6a>
    8ec1:	48 c7 44 24 20 00 00 	movq   $0x0,0x20(%rsp)
    8ec8:	00 00 
    8eca:	48 8d 7c 24 08       	lea    0x8(%rsp),%rdi
    8ecf:	48 8d 4c 24 20       	lea    0x20(%rsp),%rcx
    8ed4:	48 89 c6             	mov    %rax,%rsi
    8ed7:	48 89 da             	mov    %rbx,%rdx
    8eda:	e8 c1 72 00 00       	callq  101a0 <_ZN5alloc7raw_vec11finish_grow17hfb2d69950d1439d0E>
    8edf:	83 7c 24 08 01       	cmpl   $0x1,0x8(%rsp)
    8ee4:	74 1d                	je     8f03 <_ZN5alloc7raw_vec19RawVec$LT$T$C$A$GT$7reserve21do_reserve_and_handle17h5ac7742dcf187f1cE+0xa3>
    8ee6:	48 8b 44 24 10       	mov    0x10(%rsp),%rax
    8eeb:	48 8b 4c 24 18       	mov    0x18(%rsp),%rcx
    8ef0:	49 89 06             	mov    %rax,(%r14)
    8ef3:	48 c1 e9 06          	shr    $0x6,%rcx
    8ef7:	49 89 4e 08          	mov    %rcx,0x8(%r14)
    8efb:	48 83 c4 38          	add    $0x38,%rsp
    8eff:	5b                   	pop    %rbx
    8f00:	41 5e                	pop    %r14
    8f02:	c3                   	retq   
    8f03:	48 8b 74 24 18       	mov    0x18(%rsp),%rsi
    8f08:	48 85 f6             	test   %rsi,%rsi
    8f0b:	75 08                	jne    8f15 <_ZN5alloc7raw_vec19RawVec$LT$T$C$A$GT$7reserve21do_reserve_and_handle17h5ac7742dcf187f1cE+0xb5>
    8f0d:	ff 15 dd ef 23 00    	callq  *0x23efdd(%rip)        # 247ef0 <_GLOBAL_OFFSET_TABLE_+0x548>
    8f13:	0f 0b                	ud2    
    8f15:	48 8b 7c 24 10       	mov    0x10(%rsp),%rdi
    8f1a:	ff 15 40 eb 23 00    	callq  *0x23eb40(%rip)        # 247a60 <_GLOBAL_OFFSET_TABLE_+0xb8>
    8f20:	0f 0b                	ud2    
    8f22:	66 2e 0f 1f 84 00 00 	nopw   %cs:0x0(%rax,%rax,1)
    8f29:	00 00 00 
    8f2c:	0f 1f 40 00          	nopl   0x0(%rax)

0000000000008f30 <_ZN5alloc7raw_vec19RawVec$LT$T$C$A$GT$7reserve21do_reserve_and_handle17h5fe03a45800beedcE>:
    8f30:	41 56                	push   %r14
    8f32:	53                   	push   %rbx
    8f33:	48 83 ec 38          	sub    $0x38,%rsp
    8f37:	48 ff c6             	inc    %rsi
    8f3a:	0f 84 aa 00 00 00    	je     8fea <_ZN5alloc7raw_vec19RawVec$LT$T$C$A$GT$7reserve21do_reserve_and_handle17h5fe03a45800beedcE+0xba>
    8f40:	49 89 fe             	mov    %rdi,%r14
    8f43:	48 8b 4f 08          	mov    0x8(%rdi),%rcx
    8f47:	48 8d 04 09          	lea    (%rcx,%rcx,1),%rax
    8f4b:	48 39 f0             	cmp    %rsi,%rax
    8f4e:	48 0f 47 f0          	cmova  %rax,%rsi
    8f52:	48 83 fe 04          	cmp    $0x4,%rsi
    8f56:	b8 04 00 00 00       	mov    $0x4,%eax
    8f5b:	48 0f 47 c6          	cmova  %rsi,%rax
    8f5f:	ba 38 00 00 00       	mov    $0x38,%edx
    8f64:	31 db                	xor    %ebx,%ebx
    8f66:	48 f7 e2             	mul    %rdx
    8f69:	0f 91 c3             	setno  %bl
    8f6c:	48 c1 e3 03          	shl    $0x3,%rbx
    8f70:	48 85 c9             	test   %rcx,%rcx
    8f73:	74 1c                	je     8f91 <_ZN5alloc7raw_vec19RawVec$LT$T$C$A$GT$7reserve21do_reserve_and_handle17h5fe03a45800beedcE+0x61>
    8f75:	49 8b 16             	mov    (%r14),%rdx
    8f78:	48 6b c9 38          	imul   $0x38,%rcx,%rcx
    8f7c:	48 89 54 24 20       	mov    %rdx,0x20(%rsp)
    8f81:	48 89 4c 24 28       	mov    %rcx,0x28(%rsp)
    8f86:	48 c7 44 24 30 08 00 	movq   $0x8,0x30(%rsp)
    8f8d:	00 00 
    8f8f:	eb 09                	jmp    8f9a <_ZN5alloc7raw_vec19RawVec$LT$T$C$A$GT$7reserve21do_reserve_and_handle17h5fe03a45800beedcE+0x6a>
    8f91:	48 c7 44 24 20 00 00 	movq   $0x0,0x20(%rsp)
    8f98:	00 00 
    8f9a:	48 8d 7c 24 08       	lea    0x8(%rsp),%rdi
    8f9f:	48 8d 4c 24 20       	lea    0x20(%rsp),%rcx
    8fa4:	48 89 c6             	mov    %rax,%rsi
    8fa7:	48 89 da             	mov    %rbx,%rdx
    8faa:	e8 f1 71 00 00       	callq  101a0 <_ZN5alloc7raw_vec11finish_grow17hfb2d69950d1439d0E>
    8faf:	83 7c 24 08 01       	cmpl   $0x1,0x8(%rsp)
    8fb4:	74 2a                	je     8fe0 <_ZN5alloc7raw_vec19RawVec$LT$T$C$A$GT$7reserve21do_reserve_and_handle17h5fe03a45800beedcE+0xb0>
    8fb6:	48 8b 4c 24 10       	mov    0x10(%rsp),%rcx
    8fbb:	48 8b 44 24 18       	mov    0x18(%rsp),%rax
    8fc0:	49 89 0e             	mov    %rcx,(%r14)
    8fc3:	48 c1 e8 03          	shr    $0x3,%rax
    8fc7:	48 b9 93 24 49 92 24 	movabs $0x2492492492492493,%rcx
    8fce:	49 92 24 
    8fd1:	48 f7 e1             	mul    %rcx
    8fd4:	49 89 56 08          	mov    %rdx,0x8(%r14)
    8fd8:	48 83 c4 38          	add    $0x38,%rsp
    8fdc:	5b                   	pop    %rbx
    8fdd:	41 5e                	pop    %r14
    8fdf:	c3                   	retq   
    8fe0:	48 8b 74 24 18       	mov    0x18(%rsp),%rsi
    8fe5:	48 85 f6             	test   %rsi,%rsi
    8fe8:	75 08                	jne    8ff2 <_ZN5alloc7raw_vec19RawVec$LT$T$C$A$GT$7reserve21do_reserve_and_handle17h5fe03a45800beedcE+0xc2>
    8fea:	ff 15 00 ef 23 00    	callq  *0x23ef00(%rip)        # 247ef0 <_GLOBAL_OFFSET_TABLE_+0x548>
    8ff0:	0f 0b                	ud2    
    8ff2:	48 8b 7c 24 10       	mov    0x10(%rsp),%rdi
    8ff7:	ff 15 63 ea 23 00    	callq  *0x23ea63(%rip)        # 247a60 <_GLOBAL_OFFSET_TABLE_+0xb8>
    8ffd:	0f 0b                	ud2    
    8fff:	90                   	nop

0000000000009000 <_ZN5alloc7raw_vec19RawVec$LT$T$C$A$GT$7reserve21do_reserve_and_handle17h88cbca73c889d369E>:
    9000:	41 56                	push   %r14
    9002:	53                   	push   %rbx
    9003:	48 83 ec 38          	sub    $0x38,%rsp
    9007:	48 ff c6             	inc    %rsi
    900a:	0f 84 ab 00 00 00    	je     90bb <_ZN5alloc7raw_vec19RawVec$LT$T$C$A$GT$7reserve21do_reserve_and_handle17h88cbca73c889d369E+0xbb>
    9010:	49 89 fe             	mov    %rdi,%r14
    9013:	48 8b 4f 08          	mov    0x8(%rdi),%rcx
    9017:	48 8d 04 09          	lea    (%rcx,%rcx,1),%rax
    901b:	48 39 f0             	cmp    %rsi,%rax
    901e:	48 0f 47 f0          	cmova  %rax,%rsi
    9022:	48 83 fe 04          	cmp    $0x4,%rsi
    9026:	b8 04 00 00 00       	mov    $0x4,%eax
    902b:	48 0f 47 c6          	cmova  %rsi,%rax
    902f:	ba 48 00 00 00       	mov    $0x48,%edx
    9034:	31 db                	xor    %ebx,%ebx
    9036:	48 f7 e2             	mul    %rdx
    9039:	0f 91 c3             	setno  %bl
    903c:	48 c1 e3 03          	shl    $0x3,%rbx
    9040:	48 85 c9             	test   %rcx,%rcx
    9043:	74 20                	je     9065 <_ZN5alloc7raw_vec19RawVec$LT$T$C$A$GT$7reserve21do_reserve_and_handle17h88cbca73c889d369E+0x65>
    9045:	49 8b 16             	mov    (%r14),%rdx
    9048:	48 c1 e1 03          	shl    $0x3,%rcx
    904c:	48 8d 0c c9          	lea    (%rcx,%rcx,8),%rcx
    9050:	48 89 54 24 20       	mov    %rdx,0x20(%rsp)
    9055:	48 89 4c 24 28       	mov    %rcx,0x28(%rsp)
    905a:	48 c7 44 24 30 08 00 	movq   $0x8,0x30(%rsp)
    9061:	00 00 
    9063:	eb 09                	jmp    906e <_ZN5alloc7raw_vec19RawVec$LT$T$C$A$GT$7reserve21do_reserve_and_handle17h88cbca73c889d369E+0x6e>
    9065:	48 c7 44 24 20 00 00 	movq   $0x0,0x20(%rsp)
    906c:	00 00 
    906e:	48 8d 7c 24 08       	lea    0x8(%rsp),%rdi
    9073:	48 8d 4c 24 20       	lea    0x20(%rsp),%rcx
    9078:	48 89 c6             	mov    %rax,%rsi
    907b:	48 89 da             	mov    %rbx,%rdx
    907e:	e8 1d 71 00 00       	callq  101a0 <_ZN5alloc7raw_vec11finish_grow17hfb2d69950d1439d0E>
    9083:	83 7c 24 08 01       	cmpl   $0x1,0x8(%rsp)
    9088:	74 27                	je     90b1 <_ZN5alloc7raw_vec19RawVec$LT$T$C$A$GT$7reserve21do_reserve_and_handle17h88cbca73c889d369E+0xb1>
    908a:	48 b8 8f e3 38 8e e3 	movabs $0xe38e38e38e38e38f,%rax
    9091:	38 8e e3 
    9094:	48 f7 64 24 18       	mulq   0x18(%rsp)
    9099:	48 8b 44 24 10       	mov    0x10(%rsp),%rax
    909e:	49 89 06             	mov    %rax,(%r14)
    90a1:	48 c1 ea 06          	shr    $0x6,%rdx
    90a5:	49 89 56 08          	mov    %rdx,0x8(%r14)
    90a9:	48 83 c4 38          	add    $0x38,%rsp
    90ad:	5b                   	pop    %rbx
    90ae:	41 5e                	pop    %r14
    90b0:	c3                   	retq   
    90b1:	48 8b 74 24 18       	mov    0x18(%rsp),%rsi
    90b6:	48 85 f6             	test   %rsi,%rsi
    90b9:	75 08                	jne    90c3 <_ZN5alloc7raw_vec19RawVec$LT$T$C$A$GT$7reserve21do_reserve_and_handle17h88cbca73c889d369E+0xc3>
    90bb:	ff 15 2f ee 23 00    	callq  *0x23ee2f(%rip)        # 247ef0 <_GLOBAL_OFFSET_TABLE_+0x548>
    90c1:	0f 0b                	ud2    
    90c3:	48 8b 7c 24 10       	mov    0x10(%rsp),%rdi
    90c8:	ff 15 92 e9 23 00    	callq  *0x23e992(%rip)        # 247a60 <_GLOBAL_OFFSET_TABLE_+0xb8>
    90ce:	0f 0b                	ud2    

00000000000090d0 <_ZN5alloc7raw_vec19RawVec$LT$T$C$A$GT$7reserve21do_reserve_and_handle17ha8f1c2f31fb0ba83E>:
    90d0:	41 56                	push   %r14
    90d2:	53                   	push   %rbx
    90d3:	48 83 ec 38          	sub    $0x38,%rsp
    90d7:	48 ff c6             	inc    %rsi
    90da:	0f 84 9d 00 00 00    	je     917d <_ZN5alloc7raw_vec19RawVec$LT$T$C$A$GT$7reserve21do_reserve_and_handle17ha8f1c2f31fb0ba83E+0xad>
    90e0:	49 89 fe             	mov    %rdi,%r14
    90e3:	48 8b 4f 08          	mov    0x8(%rdi),%rcx
    90e7:	48 8d 04 09          	lea    (%rcx,%rcx,1),%rax
    90eb:	48 39 f0             	cmp    %rsi,%rax
    90ee:	48 0f 47 f0          	cmova  %rax,%rsi
    90f2:	48 83 fe 04          	cmp    $0x4,%rsi
    90f6:	b8 04 00 00 00       	mov    $0x4,%eax
    90fb:	48 0f 47 c6          	cmova  %rsi,%rax
    90ff:	ba 08 00 00 00       	mov    $0x8,%edx
    9104:	31 db                	xor    %ebx,%ebx
    9106:	48 f7 e2             	mul    %rdx
    9109:	0f 91 c3             	setno  %bl
    910c:	48 c1 e3 03          	shl    $0x3,%rbx
    9110:	48 85 c9             	test   %rcx,%rcx
    9113:	74 1c                	je     9131 <_ZN5alloc7raw_vec19RawVec$LT$T$C$A$GT$7reserve21do_reserve_and_handle17ha8f1c2f31fb0ba83E+0x61>
    9115:	49 8b 16             	mov    (%r14),%rdx
    9118:	48 c1 e1 03          	shl    $0x3,%rcx
    911c:	48 89 54 24 20       	mov    %rdx,0x20(%rsp)
    9121:	48 89 4c 24 28       	mov    %rcx,0x28(%rsp)
    9126:	48 c7 44 24 30 08 00 	movq   $0x8,0x30(%rsp)
    912d:	00 00 
    912f:	eb 09                	jmp    913a <_ZN5alloc7raw_vec19RawVec$LT$T$C$A$GT$7reserve21do_reserve_and_handle17ha8f1c2f31fb0ba83E+0x6a>
    9131:	48 c7 44 24 20 00 00 	movq   $0x0,0x20(%rsp)
    9138:	00 00 
    913a:	48 8d 7c 24 08       	lea    0x8(%rsp),%rdi
    913f:	48 8d 4c 24 20       	lea    0x20(%rsp),%rcx
    9144:	48 89 c6             	mov    %rax,%rsi
    9147:	48 89 da             	mov    %rbx,%rdx
    914a:	e8 51 70 00 00       	callq  101a0 <_ZN5alloc7raw_vec11finish_grow17hfb2d69950d1439d0E>
    914f:	83 7c 24 08 01       	cmpl   $0x1,0x8(%rsp)
    9154:	74 1d                	je     9173 <_ZN5alloc7raw_vec19RawVec$LT$T$C$A$GT$7reserve21do_reserve_and_handle17ha8f1c2f31fb0ba83E+0xa3>
    9156:	48 8b 44 24 10       	mov    0x10(%rsp),%rax
    915b:	48 8b 4c 24 18       	mov    0x18(%rsp),%rcx
    9160:	49 89 06             	mov    %rax,(%r14)
    9163:	48 c1 e9 03          	shr    $0x3,%rcx
    9167:	49 89 4e 08          	mov    %rcx,0x8(%r14)
    916b:	48 83 c4 38          	add    $0x38,%rsp
    916f:	5b                   	pop    %rbx
    9170:	41 5e                	pop    %r14
    9172:	c3                   	retq   
    9173:	48 8b 74 24 18       	mov    0x18(%rsp),%rsi
    9178:	48 85 f6             	test   %rsi,%rsi
    917b:	75 08                	jne    9185 <_ZN5alloc7raw_vec19RawVec$LT$T$C$A$GT$7reserve21do_reserve_and_handle17ha8f1c2f31fb0ba83E+0xb5>
    917d:	ff 15 6d ed 23 00    	callq  *0x23ed6d(%rip)        # 247ef0 <_GLOBAL_OFFSET_TABLE_+0x548>
    9183:	0f 0b                	ud2    
    9185:	48 8b 7c 24 10       	mov    0x10(%rsp),%rdi
    918a:	ff 15 d0 e8 23 00    	callq  *0x23e8d0(%rip)        # 247a60 <_GLOBAL_OFFSET_TABLE_+0xb8>
    9190:	0f 0b                	ud2    
    9192:	66 2e 0f 1f 84 00 00 	nopw   %cs:0x0(%rax,%rax,1)
    9199:	00 00 00 
    919c:	0f 1f 40 00          	nopl   0x0(%rax)

00000000000091a0 <_ZN5alloc7raw_vec19RawVec$LT$T$C$A$GT$7reserve21do_reserve_and_handle17he26b4976b86f2e1aE>:
    91a0:	48 83 ec 38          	sub    $0x38,%rsp
    91a4:	48 ff c7             	inc    %rdi
    91a7:	0f 84 b7 00 00 00    	je     9264 <_ZN5alloc7raw_vec19RawVec$LT$T$C$A$GT$7reserve21do_reserve_and_handle17he26b4976b86f2e1aE+0xc4>
    91ad:	48 8b 0d 74 f0 23 00 	mov    0x23f074(%rip),%rcx        # 248228 <_ZN3std12backtrace_rs9symbolize5gimli5Cache11with_global14MAPPINGS_CACHE17h563121e61c223c87E+0x20>
    91b4:	48 8d 04 09          	lea    (%rcx,%rcx,1),%rax
    91b8:	48 39 f8             	cmp    %rdi,%rax
    91bb:	48 0f 47 f8          	cmova  %rax,%rdi
    91bf:	48 83 ff 04          	cmp    $0x4,%rdi
    91c3:	b8 04 00 00 00       	mov    $0x4,%eax
    91c8:	48 0f 47 c7          	cmova  %rdi,%rax
    91cc:	ba 90 01 00 00       	mov    $0x190,%edx
    91d1:	45 31 c0             	xor    %r8d,%r8d
    91d4:	48 f7 e2             	mul    %rdx
    91d7:	41 0f 91 c0          	setno  %r8b
    91db:	49 c1 e0 03          	shl    $0x3,%r8
    91df:	48 85 c9             	test   %rcx,%rcx
    91e2:	74 23                	je     9207 <_ZN5alloc7raw_vec19RawVec$LT$T$C$A$GT$7reserve21do_reserve_and_handle17he26b4976b86f2e1aE+0x67>
    91e4:	48 8b 15 35 f0 23 00 	mov    0x23f035(%rip),%rdx        # 248220 <_ZN3std12backtrace_rs9symbolize5gimli5Cache11with_global14MAPPINGS_CACHE17h563121e61c223c87E+0x18>
    91eb:	48 69 c9 90 01 00 00 	imul   $0x190,%rcx,%rcx
    91f2:	48 89 54 24 20       	mov    %rdx,0x20(%rsp)
    91f7:	48 89 4c 24 28       	mov    %rcx,0x28(%rsp)
    91fc:	48 c7 44 24 30 08 00 	movq   $0x8,0x30(%rsp)
    9203:	00 00 
    9205:	eb 09                	jmp    9210 <_ZN5alloc7raw_vec19RawVec$LT$T$C$A$GT$7reserve21do_reserve_and_handle17he26b4976b86f2e1aE+0x70>
    9207:	48 c7 44 24 20 00 00 	movq   $0x0,0x20(%rsp)
    920e:	00 00 
    9210:	48 8d 7c 24 08       	lea    0x8(%rsp),%rdi
    9215:	48 8d 4c 24 20       	lea    0x20(%rsp),%rcx
    921a:	48 89 c6             	mov    %rax,%rsi
    921d:	4c 89 c2             	mov    %r8,%rdx
    9220:	e8 7b 6f 00 00       	callq  101a0 <_ZN5alloc7raw_vec11finish_grow17hfb2d69950d1439d0E>
    9225:	83 7c 24 08 01       	cmpl   $0x1,0x8(%rsp)
    922a:	74 2e                	je     925a <_ZN5alloc7raw_vec19RawVec$LT$T$C$A$GT$7reserve21do_reserve_and_handle17he26b4976b86f2e1aE+0xba>
    922c:	48 8b 4c 24 10       	mov    0x10(%rsp),%rcx
    9231:	48 8b 44 24 18       	mov    0x18(%rsp),%rax
    9236:	48 89 0d e3 ef 23 00 	mov    %rcx,0x23efe3(%rip)        # 248220 <_ZN3std12backtrace_rs9symbolize5gimli5Cache11with_global14MAPPINGS_CACHE17h563121e61c223c87E+0x18>
    923d:	48 c1 e8 04          	shr    $0x4,%rax
    9241:	48 b9 71 3d 0a d7 a3 	movabs $0xa3d70a3d70a3d71,%rcx
    9248:	70 3d 0a 
    924b:	48 f7 e1             	mul    %rcx
    924e:	48 89 15 d3 ef 23 00 	mov    %rdx,0x23efd3(%rip)        # 248228 <_ZN3std12backtrace_rs9symbolize5gimli5Cache11with_global14MAPPINGS_CACHE17h563121e61c223c87E+0x20>
    9255:	48 83 c4 38          	add    $0x38,%rsp
    9259:	c3                   	retq   
    925a:	48 8b 74 24 18       	mov    0x18(%rsp),%rsi
    925f:	48 85 f6             	test   %rsi,%rsi
    9262:	75 08                	jne    926c <_ZN5alloc7raw_vec19RawVec$LT$T$C$A$GT$7reserve21do_reserve_and_handle17he26b4976b86f2e1aE+0xcc>
    9264:	ff 15 86 ec 23 00    	callq  *0x23ec86(%rip)        # 247ef0 <_GLOBAL_OFFSET_TABLE_+0x548>
    926a:	0f 0b                	ud2    
    926c:	48 8b 7c 24 10       	mov    0x10(%rsp),%rdi
    9271:	ff 15 e9 e7 23 00    	callq  *0x23e7e9(%rip)        # 247a60 <_GLOBAL_OFFSET_TABLE_+0xb8>
    9277:	0f 0b                	ud2    
    9279:	0f 1f 80 00 00 00 00 	nopl   0x0(%rax)

0000000000009280 <_ZN3std2io8buffered9bufwriter18BufWriter$LT$W$GT$14write_all_cold17h9bc0e0d5b2119848E>:
    9280:	55                   	push   %rbp
    9281:	41 57                	push   %r15
    9283:	41 56                	push   %r14
    9285:	41 55                	push   %r13
    9287:	41 54                	push   %r12
    9289:	53                   	push   %rbx
    928a:	50                   	push   %rax
    928b:	48 89 d3             	mov    %rdx,%rbx
    928e:	49 89 f4             	mov    %rsi,%r12
    9291:	49 89 ff             	mov    %rdi,%r15
    9294:	48 8b 47 08          	mov    0x8(%rdi),%rax
    9298:	48 89 c1             	mov    %rax,%rcx
    929b:	48 2b 4f 10          	sub    0x10(%rdi),%rcx
    929f:	48 39 d1             	cmp    %rdx,%rcx
    92a2:	73 14                	jae    92b8 <_ZN3std2io8buffered9bufwriter18BufWriter$LT$W$GT$14write_all_cold17h9bc0e0d5b2119848E+0x38>
    92a4:	4c 89 ff             	mov    %r15,%rdi
    92a7:	e8 24 ee 00 00       	callq  180d0 <_ZN3std2io8buffered9bufwriter18BufWriter$LT$W$GT$9flush_buf17h333c6c56cfe8bba2E>
    92ac:	3c 04                	cmp    $0x4,%al
    92ae:	0f 85 da 00 00 00    	jne    938e <_ZN3std2io8buffered9bufwriter18BufWriter$LT$W$GT$14write_all_cold17h9bc0e0d5b2119848E+0x10e>
    92b4:	49 8b 47 08          	mov    0x8(%r15),%rax
    92b8:	48 39 d8             	cmp    %rbx,%rax
    92bb:	76 24                	jbe    92e1 <_ZN3std2io8buffered9bufwriter18BufWriter$LT$W$GT$14write_all_cold17h9bc0e0d5b2119848E+0x61>
    92bd:	49 8b 6f 10          	mov    0x10(%r15),%rbp
    92c1:	49 8b 3f             	mov    (%r15),%rdi
    92c4:	48 01 ef             	add    %rbp,%rdi
    92c7:	4c 89 e6             	mov    %r12,%rsi
    92ca:	48 89 da             	mov    %rbx,%rdx
    92cd:	ff 15 2d ea 23 00    	callq  *0x23ea2d(%rip)        # 247d00 <_GLOBAL_OFFSET_TABLE_+0x358>
    92d3:	48 01 dd             	add    %rbx,%rbp
    92d6:	49 89 6f 10          	mov    %rbp,0x10(%r15)
    92da:	b0 04                	mov    $0x4,%al
    92dc:	e9 08 01 00 00       	jmpq   93e9 <_ZN3std2io8buffered9bufwriter18BufWriter$LT$W$GT$14write_all_cold17h9bc0e0d5b2119848E+0x169>
    92e1:	41 c6 47 19 01       	movb   $0x1,0x19(%r15)
    92e6:	41 80 7f 18 01       	cmpb   $0x1,0x18(%r15)
    92eb:	0f 85 2b 01 00 00    	jne    941c <_ZN3std2io8buffered9bufwriter18BufWriter$LT$W$GT$14write_all_cold17h9bc0e0d5b2119848E+0x19c>
    92f1:	b0 04                	mov    $0x4,%al
    92f3:	40 b7 01             	mov    $0x1,%dil
    92f6:	48 85 db             	test   %rbx,%rbx
    92f9:	0f 84 9d 00 00 00    	je     939c <_ZN3std2io8buffered9bufwriter18BufWriter$LT$W$GT$14write_all_cold17h9bc0e0d5b2119848E+0x11c>
    92ff:	49 be ff ff ff ff ff 	movabs $0x7fffffffffffffff,%r14
    9306:	ff ff 7f 
    9309:	4c 8d 2d 20 c9 23 00 	lea    0x23c920(%rip),%r13        # 245c30 <__JCR_END__+0x768>
    9310:	4c 89 e8             	mov    %r13,%rax
    9313:	48 c1 e8 08          	shr    $0x8,%rax
    9317:	48 89 04 24          	mov    %rax,(%rsp)
    931b:	49 c1 e5 38          	shl    $0x38,%r13
    931f:	49 83 cd 0e          	or     $0xe,%r13
    9323:	eb 24                	jmp    9349 <_ZN3std2io8buffered9bufwriter18BufWriter$LT$W$GT$14write_all_cold17h9bc0e0d5b2119848E+0xc9>
    9325:	66 2e 0f 1f 84 00 00 	nopw   %cs:0x0(%rax,%rax,1)
    932c:	00 00 00 
    932f:	90                   	nop
    9330:	ff 15 12 e7 23 00    	callq  *0x23e712(%rip)        # 247a48 <_GLOBAL_OFFSET_TABLE_+0xa0>
    9336:	8b 28                	mov    (%rax),%ebp
    9338:	89 ef                	mov    %ebp,%edi
    933a:	ff 15 00 ea 23 00    	callq  *0x23ea00(%rip)        # 247d40 <_GLOBAL_OFFSET_TABLE_+0x398>
    9340:	3c 0f                	cmp    $0xf,%al
    9342:	75 64                	jne    93a8 <_ZN3std2io8buffered9bufwriter18BufWriter$LT$W$GT$14write_all_cold17h9bc0e0d5b2119848E+0x128>
    9344:	48 85 db             	test   %rbx,%rbx
    9347:	74 3a                	je     9383 <_ZN3std2io8buffered9bufwriter18BufWriter$LT$W$GT$14write_all_cold17h9bc0e0d5b2119848E+0x103>
    9349:	4c 39 f3             	cmp    %r14,%rbx
    934c:	4c 89 f2             	mov    %r14,%rdx
    934f:	48 0f 42 d3          	cmovb  %rbx,%rdx
    9353:	bf 01 00 00 00       	mov    $0x1,%edi
    9358:	4c 89 e6             	mov    %r12,%rsi
    935b:	ff 15 7f e7 23 00    	callq  *0x23e77f(%rip)        # 247ae0 <_GLOBAL_OFFSET_TABLE_+0x138>
    9361:	48 83 f8 ff          	cmp    $0xffffffffffffffff,%rax
    9365:	74 c9                	je     9330 <_ZN3std2io8buffered9bufwriter18BufWriter$LT$W$GT$14write_all_cold17h9bc0e0d5b2119848E+0xb0>
    9367:	48 85 c0             	test   %rax,%rax
    936a:	74 32                	je     939e <_ZN3std2io8buffered9bufwriter18BufWriter$LT$W$GT$14write_all_cold17h9bc0e0d5b2119848E+0x11e>
    936c:	48 89 d9             	mov    %rbx,%rcx
    936f:	48 29 c1             	sub    %rax,%rcx
    9372:	0f 82 8f 00 00 00    	jb     9407 <_ZN3std2io8buffered9bufwriter18BufWriter$LT$W$GT$14write_all_cold17h9bc0e0d5b2119848E+0x187>
    9378:	49 01 c4             	add    %rax,%r12
    937b:	48 89 cb             	mov    %rcx,%rbx
    937e:	48 85 db             	test   %rbx,%rbx
    9381:	75 c6                	jne    9349 <_ZN3std2io8buffered9bufwriter18BufWriter$LT$W$GT$14write_all_cold17h9bc0e0d5b2119848E+0xc9>
    9383:	48 8b 14 24          	mov    (%rsp),%rdx
    9387:	40 b7 01             	mov    $0x1,%dil
    938a:	b0 04                	mov    $0x4,%al
    938c:	eb 27                	jmp    93b5 <_ZN3std2io8buffered9bufwriter18BufWriter$LT$W$GT$14write_all_cold17h9bc0e0d5b2119848E+0x135>
    938e:	49 89 c5             	mov    %rax,%r13
    9391:	49 0f ac d5 08       	shrd   $0x8,%rdx,%r13
    9396:	48 c1 ea 08          	shr    $0x8,%rdx
    939a:	eb 4d                	jmp    93e9 <_ZN3std2io8buffered9bufwriter18BufWriter$LT$W$GT$14write_all_cold17h9bc0e0d5b2119848E+0x169>
    939c:	eb 17                	jmp    93b5 <_ZN3std2io8buffered9bufwriter18BufWriter$LT$W$GT$14write_all_cold17h9bc0e0d5b2119848E+0x135>
    939e:	b0 02                	mov    $0x2,%al
    93a0:	31 ff                	xor    %edi,%edi
    93a2:	48 8b 14 24          	mov    (%rsp),%rdx
    93a6:	eb 0d                	jmp    93b5 <_ZN3std2io8buffered9bufwriter18BufWriter$LT$W$GT$14write_all_cold17h9bc0e0d5b2119848E+0x135>
    93a8:	41 89 ed             	mov    %ebp,%r13d
    93ab:	49 c1 e5 18          	shl    $0x18,%r13
    93af:	31 d2                	xor    %edx,%edx
    93b1:	31 ff                	xor    %edi,%edi
    93b3:	31 c0                	xor    %eax,%eax
    93b5:	0f b6 c0             	movzbl %al,%eax
    93b8:	4c 89 e9             	mov    %r13,%rcx
    93bb:	48 81 e1 00 00 00 ff 	and    $0xffffffffff000000,%rcx
    93c2:	48 c1 e1 08          	shl    $0x8,%rcx
    93c6:	48 09 c1             	or     %rax,%rcx
    93c9:	48 be 00 00 00 00 09 	movabs $0x900000000,%rsi
    93d0:	00 00 00 
    93d3:	48 31 ce             	xor    %rcx,%rsi
    93d6:	b9 04 00 00 00       	mov    $0x4,%ecx
    93db:	0f 44 c1             	cmove  %ecx,%eax
    93de:	40 84 ff             	test   %dil,%dil
    93e1:	0f 45 c1             	cmovne %ecx,%eax
    93e4:	41 c6 47 19 00       	movb   $0x0,0x19(%r15)
    93e9:	4c 0f a4 ea 08       	shld   $0x8,%r13,%rdx
    93ee:	49 c1 e5 08          	shl    $0x8,%r13
    93f2:	0f b6 c0             	movzbl %al,%eax
    93f5:	4c 09 e8             	or     %r13,%rax
    93f8:	48 83 c4 08          	add    $0x8,%rsp
    93fc:	5b                   	pop    %rbx
    93fd:	41 5c                	pop    %r12
    93ff:	41 5d                	pop    %r13
    9401:	41 5e                	pop    %r14
    9403:	41 5f                	pop    %r15
    9405:	5d                   	pop    %rbp
    9406:	c3                   	retq   
    9407:	48 8d 15 b2 c8 23 00 	lea    0x23c8b2(%rip),%rdx        # 245cc0 <__JCR_END__+0x7f8>
    940e:	48 89 c7             	mov    %rax,%rdi
    9411:	48 89 de             	mov    %rbx,%rsi
    9414:	ff 15 76 e9 23 00    	callq  *0x23e976(%rip)        # 247d90 <_GLOBAL_OFFSET_TABLE_+0x3e8>
    941a:	0f 0b                	ud2    
    941c:	48 8d 3d bb 0d 03 00 	lea    0x30dbb(%rip),%rdi        # 3a1de <str.5+0x25e>
    9423:	48 8d 15 2e c7 23 00 	lea    0x23c72e(%rip),%rdx        # 245b58 <__JCR_END__+0x690>
    942a:	be 2b 00 00 00       	mov    $0x2b,%esi
    942f:	ff 15 6b ea 23 00    	callq  *0x23ea6b(%rip)        # 247ea0 <_GLOBAL_OFFSET_TABLE_+0x4f8>
    9435:	0f 0b                	ud2    
    9437:	66 0f 1f 84 00 00 00 	nopw   0x0(%rax,%rax,1)
    943e:	00 00 

0000000000009440 <_ZN3std7process5abort17h9040e70f407db33eE>:
    9440:	50                   	push   %rax
    9441:	e8 1a 64 01 00       	callq  1f860 <_ZN3std3sys4unix14abort_internal17h8ce6257db524a604E>
    9446:	0f 0b                	ud2    
    9448:	0f 1f 84 00 00 00 00 	nopl   0x0(%rax,%rax,1)
    944f:	00 

0000000000009450 <_ZN3std4sync4once4Once10call_inner17h4030b088a5783b2dE>:
    9450:	55                   	push   %rbp
    9451:	41 57                	push   %r15
    9453:	41 56                	push   %r14
    9455:	41 55                	push   %r13
    9457:	41 54                	push   %r12
    9459:	53                   	push   %rbx
    945a:	48 83 ec 48          	sub    $0x48,%rsp
    945e:	48 89 4c 24 40       	mov    %rcx,0x40(%rsp)
    9463:	48 89 54 24 38       	mov    %rdx,0x38(%rsp)
    9468:	48 89 7c 24 20       	mov    %rdi,0x20(%rsp)
    946d:	48 8b 1f             	mov    (%rdi),%rbx
    9470:	85 f6                	test   %esi,%esi
    9472:	0f 84 c2 01 00 00    	je     963a <_ZN3std4sync4once4Once10call_inner17h4030b088a5783b2dE+0x1ea>
    9478:	ba 02 00 00 00       	mov    $0x2,%edx
    947d:	45 31 ff             	xor    %r15d,%r15d
    9480:	4c 8b 25 41 e8 23 00 	mov    0x23e841(%rip),%r12        # 247cc8 <_GLOBAL_OFFSET_TABLE_+0x320>
    9487:	eb 14                	jmp    949d <_ZN3std4sync4once4Once10call_inner17h4030b088a5783b2dE+0x4d>
    9489:	0f 1f 80 00 00 00 00 	nopl   0x0(%rax)
    9490:	48 8b 44 24 20       	mov    0x20(%rsp),%rax
    9495:	48 8b 18             	mov    (%rax),%rbx
    9498:	ba 02 00 00 00       	mov    $0x2,%edx
    949d:	49 89 dd             	mov    %rbx,%r13
    94a0:	48 83 fb 02          	cmp    $0x2,%rbx
    94a4:	73 1a                	jae    94c0 <_ZN3std4sync4once4Once10call_inner17h4030b088a5783b2dE+0x70>
    94a6:	4c 89 e8             	mov    %r13,%rax
    94a9:	48 8b 4c 24 20       	mov    0x20(%rsp),%rcx
    94ae:	f0 48 0f b1 11       	lock cmpxchg %rdx,(%rcx)
    94b3:	48 89 c3             	mov    %rax,%rbx
    94b6:	75 e5                	jne    949d <_ZN3std4sync4once4Once10call_inner17h4030b088a5783b2dE+0x4d>
    94b8:	e9 48 03 00 00       	jmpq   9805 <_ZN3std4sync4once4Once10call_inner17h4030b088a5783b2dE+0x3b5>
    94bd:	0f 1f 00             	nopl   (%rax)
    94c0:	49 83 fd 03          	cmp    $0x3,%r13
    94c4:	0f 84 87 03 00 00    	je     9851 <_ZN3std4sync4once4Once10call_inner17h4030b088a5783b2dE+0x401>
    94ca:	44 89 e8             	mov    %r13d,%eax
    94cd:	83 e0 03             	and    $0x3,%eax
    94d0:	83 f8 02             	cmp    $0x2,%eax
    94d3:	74 16                	je     94eb <_ZN3std4sync4once4Once10call_inner17h4030b088a5783b2dE+0x9b>
    94d5:	e9 bc 03 00 00       	jmpq   9896 <_ZN3std4sync4once4Once10call_inner17h4030b088a5783b2dE+0x446>
    94da:	66 0f 1f 44 00 00    	nopw   0x0(%rax,%rax,1)
    94e0:	44 89 e8             	mov    %r13d,%eax
    94e3:	83 e0 03             	and    $0x3,%eax
    94e6:	83 f8 02             	cmp    $0x2,%eax
    94e9:	75 a5                	jne    9490 <_ZN3std4sync4once4Once10call_inner17h4030b088a5783b2dE+0x40>
    94eb:	66 66 66 64 48 8b 04 	data16 data16 data16 mov %fs:0x0,%rax
    94f2:	25 00 00 00 00 
    94f7:	49 89 c6             	mov    %rax,%r14
    94fa:	83 b8 a0 ff ff ff 01 	cmpl   $0x1,-0x60(%rax)
    9501:	75 0d                	jne    9510 <_ZN3std4sync4once4Once10call_inner17h4030b088a5783b2dE+0xc0>
    9503:	48 8d 80 a8 ff ff ff 	lea    -0x58(%rax),%rax
    950a:	eb 12                	jmp    951e <_ZN3std4sync4once4Once10call_inner17h4030b088a5783b2dE+0xce>
    950c:	0f 1f 40 00          	nopl   0x0(%rax)
    9510:	e8 0b e4 00 00       	callq  17920 <_ZN3std6thread5local4fast12Key$LT$T$GT$14try_initialize17h5c4d9f49e54ad5b4E>
    9515:	48 85 c0             	test   %rax,%rax
    9518:	0f 84 42 03 00 00    	je     9860 <_ZN3std4sync4once4Once10call_inner17h4030b088a5783b2dE+0x410>
    951e:	48 89 c7             	mov    %rax,%rdi
    9521:	e8 4a 27 01 00       	callq  1bc70 <_ZN3std10sys_common11thread_info10ThreadInfo4with28_$u7b$$u7b$closure$u7d$$u7d$17hc168cc948f118662E>
    9526:	4c 89 e9             	mov    %r13,%rcx
    9529:	48 83 e1 fc          	and    $0xfffffffffffffffc,%rcx
    952d:	48 89 44 24 08       	mov    %rax,0x8(%rsp)
    9532:	c6 44 24 18 00       	movb   $0x0,0x18(%rsp)
    9537:	48 89 4c 24 10       	mov    %rcx,0x10(%rsp)
    953c:	4c 89 e8             	mov    %r13,%rax
    953f:	48 8b 4c 24 20       	mov    0x20(%rsp),%rcx
    9544:	48 8d 54 24 0a       	lea    0xa(%rsp),%rdx
    9549:	f0 48 0f b1 11       	lock cmpxchg %rdx,(%rcx)
    954e:	0f 84 b2 00 00 00    	je     9606 <_ZN3std4sync4once4Once10call_inner17h4030b088a5783b2dE+0x1b6>
    9554:	49 89 c5             	mov    %rax,%r13
    9557:	48 8b 44 24 08       	mov    0x8(%rsp),%rax
    955c:	48 85 c0             	test   %rax,%rax
    955f:	0f 84 7b ff ff ff    	je     94e0 <_ZN3std4sync4once4Once10call_inner17h4030b088a5783b2dE+0x90>
    9565:	f0 48 83 28 01       	lock subq $0x1,(%rax)
    956a:	0f 85 70 ff ff ff    	jne    94e0 <_ZN3std4sync4once4Once10call_inner17h4030b088a5783b2dE+0x90>
    9570:	48 8b 7c 24 08       	mov    0x8(%rsp),%rdi
    9575:	e8 36 6b 00 00       	callq  100b0 <_ZN5alloc4sync12Arc$LT$T$GT$9drop_slow17h0bc34de18c6d6243E>
    957a:	e9 61 ff ff ff       	jmpq   94e0 <_ZN3std4sync4once4Once10call_inner17h4030b088a5783b2dE+0x90>
    957f:	90                   	nop
    9580:	4c 89 f0             	mov    %r14,%rax
    9583:	41 83 be a0 ff ff ff 	cmpl   $0x1,-0x60(%r14)
    958a:	01 
    958b:	75 13                	jne    95a0 <_ZN3std4sync4once4Once10call_inner17h4030b088a5783b2dE+0x150>
    958d:	48 8d 80 a8 ff ff ff 	lea    -0x58(%rax),%rax
    9594:	eb 18                	jmp    95ae <_ZN3std4sync4once4Once10call_inner17h4030b088a5783b2dE+0x15e>
    9596:	66 2e 0f 1f 84 00 00 	nopw   %cs:0x0(%rax,%rax,1)
    959d:	00 00 00 
    95a0:	e8 7b e3 00 00       	callq  17920 <_ZN3std6thread5local4fast12Key$LT$T$GT$14try_initialize17h5c4d9f49e54ad5b4E>
    95a5:	48 85 c0             	test   %rax,%rax
    95a8:	0f 84 cd 02 00 00    	je     987b <_ZN3std4sync4once4Once10call_inner17h4030b088a5783b2dE+0x42b>
    95ae:	48 89 c7             	mov    %rax,%rdi
    95b1:	e8 ba 26 01 00       	callq  1bc70 <_ZN3std10sys_common11thread_info10ThreadInfo4with28_$u7b$$u7b$closure$u7d$$u7d$17hc168cc948f118662E>
    95b6:	48 89 c3             	mov    %rax,%rbx
    95b9:	f0 83 68 28 01       	lock subl $0x1,0x28(%rax)
    95be:	74 37                	je     95f7 <_ZN3std4sync4once4Once10call_inner17h4030b088a5783b2dE+0x1a7>
    95c0:	48 89 dd             	mov    %rbx,%rbp
    95c3:	48 83 c5 28          	add    $0x28,%rbp
    95c7:	66 0f 1f 84 00 00 00 	nopw   0x0(%rax,%rax,1)
    95ce:	00 00 
    95d0:	bf ca 00 00 00       	mov    $0xca,%edi
    95d5:	48 89 ee             	mov    %rbp,%rsi
    95d8:	ba 80 00 00 00       	mov    $0x80,%edx
    95dd:	b9 ff ff ff ff       	mov    $0xffffffff,%ecx
    95e2:	45 31 c0             	xor    %r8d,%r8d
    95e5:	31 c0                	xor    %eax,%eax
    95e7:	41 ff d4             	callq  *%r12
    95ea:	b8 01 00 00 00       	mov    $0x1,%eax
    95ef:	f0 44 0f b1 7d 00    	lock cmpxchg %r15d,0x0(%rbp)
    95f5:	75 d9                	jne    95d0 <_ZN3std4sync4once4Once10call_inner17h4030b088a5783b2dE+0x180>
    95f7:	f0 48 83 2b 01       	lock subq $0x1,(%rbx)
    95fc:	75 08                	jne    9606 <_ZN3std4sync4once4Once10call_inner17h4030b088a5783b2dE+0x1b6>
    95fe:	48 89 df             	mov    %rbx,%rdi
    9601:	e8 aa 6a 00 00       	callq  100b0 <_ZN5alloc4sync12Arc$LT$T$GT$9drop_slow17h0bc34de18c6d6243E>
    9606:	8a 44 24 18          	mov    0x18(%rsp),%al
    960a:	84 c0                	test   %al,%al
    960c:	0f 84 6e ff ff ff    	je     9580 <_ZN3std4sync4once4Once10call_inner17h4030b088a5783b2dE+0x130>
    9612:	48 8b 44 24 08       	mov    0x8(%rsp),%rax
    9617:	48 85 c0             	test   %rax,%rax
    961a:	0f 84 70 fe ff ff    	je     9490 <_ZN3std4sync4once4Once10call_inner17h4030b088a5783b2dE+0x40>
    9620:	f0 48 83 28 01       	lock subq $0x1,(%rax)
    9625:	0f 85 65 fe ff ff    	jne    9490 <_ZN3std4sync4once4Once10call_inner17h4030b088a5783b2dE+0x40>
    962b:	48 8b 7c 24 08       	mov    0x8(%rsp),%rdi
    9630:	e8 7b 6a 00 00       	callq  100b0 <_ZN5alloc4sync12Arc$LT$T$GT$9drop_slow17h0bc34de18c6d6243E>
    9635:	e9 56 fe ff ff       	jmpq   9490 <_ZN3std4sync4once4Once10call_inner17h4030b088a5783b2dE+0x40>
    963a:	45 31 ed             	xor    %r13d,%r13d
    963d:	41 bc 02 00 00 00    	mov    $0x2,%r12d
    9643:	4c 8b 3d 7e e6 23 00 	mov    0x23e67e(%rip),%r15        # 247cc8 <_GLOBAL_OFFSET_TABLE_+0x320>
    964a:	eb 0c                	jmp    9658 <_ZN3std4sync4once4Once10call_inner17h4030b088a5783b2dE+0x208>
    964c:	0f 1f 40 00          	nopl   0x0(%rax)
    9650:	48 8b 44 24 20       	mov    0x20(%rsp),%rax
    9655:	48 8b 18             	mov    (%rax),%rbx
    9658:	48 85 db             	test   %rbx,%rbx
    965b:	0f 84 8f 01 00 00    	je     97f0 <_ZN3std4sync4once4Once10call_inner17h4030b088a5783b2dE+0x3a0>
    9661:	48 83 fb 03          	cmp    $0x3,%rbx
    9665:	0f 84 e6 01 00 00    	je     9851 <_ZN3std4sync4once4Once10call_inner17h4030b088a5783b2dE+0x401>
    966b:	48 83 fb 01          	cmp    $0x1,%rbx
    966f:	0f 84 3c 02 00 00    	je     98b1 <_ZN3std4sync4once4Once10call_inner17h4030b088a5783b2dE+0x461>
    9675:	89 d8                	mov    %ebx,%eax
    9677:	83 e0 03             	and    $0x3,%eax
    967a:	83 f8 02             	cmp    $0x2,%eax
    967d:	74 1b                	je     969a <_ZN3std4sync4once4Once10call_inner17h4030b088a5783b2dE+0x24a>
    967f:	e9 12 02 00 00       	jmpq   9896 <_ZN3std4sync4once4Once10call_inner17h4030b088a5783b2dE+0x446>
    9684:	66 2e 0f 1f 84 00 00 	nopw   %cs:0x0(%rax,%rax,1)
    968b:	00 00 00 
    968e:	66 90                	xchg   %ax,%ax
    9690:	89 d8                	mov    %ebx,%eax
    9692:	83 e0 03             	and    $0x3,%eax
    9695:	83 f8 02             	cmp    $0x2,%eax
    9698:	75 b6                	jne    9650 <_ZN3std4sync4once4Once10call_inner17h4030b088a5783b2dE+0x200>
    969a:	66 66 66 64 48 8b 04 	data16 data16 data16 mov %fs:0x0,%rax
    96a1:	25 00 00 00 00 
    96a6:	49 89 c6             	mov    %rax,%r14
    96a9:	83 b8 a0 ff ff ff 01 	cmpl   $0x1,-0x60(%rax)
    96b0:	75 0e                	jne    96c0 <_ZN3std4sync4once4Once10call_inner17h4030b088a5783b2dE+0x270>
    96b2:	48 8d 80 a8 ff ff ff 	lea    -0x58(%rax),%rax
    96b9:	eb 13                	jmp    96ce <_ZN3std4sync4once4Once10call_inner17h4030b088a5783b2dE+0x27e>
    96bb:	0f 1f 44 00 00       	nopl   0x0(%rax,%rax,1)
    96c0:	e8 5b e2 00 00       	callq  17920 <_ZN3std6thread5local4fast12Key$LT$T$GT$14try_initialize17h5c4d9f49e54ad5b4E>
    96c5:	48 85 c0             	test   %rax,%rax
    96c8:	0f 84 92 01 00 00    	je     9860 <_ZN3std4sync4once4Once10call_inner17h4030b088a5783b2dE+0x410>
    96ce:	48 89 c7             	mov    %rax,%rdi
    96d1:	e8 9a 25 01 00       	callq  1bc70 <_ZN3std10sys_common11thread_info10ThreadInfo4with28_$u7b$$u7b$closure$u7d$$u7d$17hc168cc948f118662E>
    96d6:	48 89 d9             	mov    %rbx,%rcx
    96d9:	48 83 e1 fc          	and    $0xfffffffffffffffc,%rcx
    96dd:	48 89 44 24 08       	mov    %rax,0x8(%rsp)
    96e2:	c6 44 24 18 00       	movb   $0x0,0x18(%rsp)
    96e7:	48 89 4c 24 10       	mov    %rcx,0x10(%rsp)
    96ec:	48 89 d8             	mov    %rbx,%rax
    96ef:	48 8b 4c 24 20       	mov    0x20(%rsp),%rcx
    96f4:	48 8d 54 24 0a       	lea    0xa(%rsp),%rdx
    96f9:	f0 48 0f b1 11       	lock cmpxchg %rdx,(%rcx)
    96fe:	0f 84 b2 00 00 00    	je     97b6 <_ZN3std4sync4once4Once10call_inner17h4030b088a5783b2dE+0x366>
    9704:	48 89 c3             	mov    %rax,%rbx
    9707:	48 8b 44 24 08       	mov    0x8(%rsp),%rax
    970c:	48 85 c0             	test   %rax,%rax
    970f:	0f 84 7b ff ff ff    	je     9690 <_ZN3std4sync4once4Once10call_inner17h4030b088a5783b2dE+0x240>
    9715:	f0 48 83 28 01       	lock subq $0x1,(%rax)
    971a:	0f 85 70 ff ff ff    	jne    9690 <_ZN3std4sync4once4Once10call_inner17h4030b088a5783b2dE+0x240>
    9720:	48 8b 7c 24 08       	mov    0x8(%rsp),%rdi
    9725:	e8 86 69 00 00       	callq  100b0 <_ZN5alloc4sync12Arc$LT$T$GT$9drop_slow17h0bc34de18c6d6243E>
    972a:	e9 61 ff ff ff       	jmpq   9690 <_ZN3std4sync4once4Once10call_inner17h4030b088a5783b2dE+0x240>
    972f:	90                   	nop
    9730:	4c 89 f0             	mov    %r14,%rax
    9733:	41 83 be a0 ff ff ff 	cmpl   $0x1,-0x60(%r14)
    973a:	01 
    973b:	75 13                	jne    9750 <_ZN3std4sync4once4Once10call_inner17h4030b088a5783b2dE+0x300>
    973d:	48 8d 80 a8 ff ff ff 	lea    -0x58(%rax),%rax
    9744:	eb 18                	jmp    975e <_ZN3std4sync4once4Once10call_inner17h4030b088a5783b2dE+0x30e>
    9746:	66 2e 0f 1f 84 00 00 	nopw   %cs:0x0(%rax,%rax,1)
    974d:	00 00 00 
    9750:	e8 cb e1 00 00       	callq  17920 <_ZN3std6thread5local4fast12Key$LT$T$GT$14try_initialize17h5c4d9f49e54ad5b4E>
    9755:	48 85 c0             	test   %rax,%rax
    9758:	0f 84 1d 01 00 00    	je     987b <_ZN3std4sync4once4Once10call_inner17h4030b088a5783b2dE+0x42b>
    975e:	48 89 c7             	mov    %rax,%rdi
    9761:	e8 0a 25 01 00       	callq  1bc70 <_ZN3std10sys_common11thread_info10ThreadInfo4with28_$u7b$$u7b$closure$u7d$$u7d$17hc168cc948f118662E>
    9766:	48 89 c5             	mov    %rax,%rbp
    9769:	f0 83 68 28 01       	lock subl $0x1,0x28(%rax)
    976e:	74 36                	je     97a6 <_ZN3std4sync4once4Once10call_inner17h4030b088a5783b2dE+0x356>
    9770:	48 89 eb             	mov    %rbp,%rbx
    9773:	48 83 c3 28          	add    $0x28,%rbx
    9777:	66 0f 1f 84 00 00 00 	nopw   0x0(%rax,%rax,1)
    977e:	00 00 
    9780:	bf ca 00 00 00       	mov    $0xca,%edi
    9785:	48 89 de             	mov    %rbx,%rsi
    9788:	ba 80 00 00 00       	mov    $0x80,%edx
    978d:	b9 ff ff ff ff       	mov    $0xffffffff,%ecx
    9792:	45 31 c0             	xor    %r8d,%r8d
    9795:	31 c0                	xor    %eax,%eax
    9797:	41 ff d7             	callq  *%r15
    979a:	b8 01 00 00 00       	mov    $0x1,%eax
    979f:	f0 44 0f b1 2b       	lock cmpxchg %r13d,(%rbx)
    97a4:	75 da                	jne    9780 <_ZN3std4sync4once4Once10call_inner17h4030b088a5783b2dE+0x330>
    97a6:	f0 48 83 6d 00 01    	lock subq $0x1,0x0(%rbp)
    97ac:	75 08                	jne    97b6 <_ZN3std4sync4once4Once10call_inner17h4030b088a5783b2dE+0x366>
    97ae:	48 89 ef             	mov    %rbp,%rdi
    97b1:	e8 fa 68 00 00       	callq  100b0 <_ZN5alloc4sync12Arc$LT$T$GT$9drop_slow17h0bc34de18c6d6243E>
    97b6:	8a 44 24 18          	mov    0x18(%rsp),%al
    97ba:	84 c0                	test   %al,%al
    97bc:	0f 84 6e ff ff ff    	je     9730 <_ZN3std4sync4once4Once10call_inner17h4030b088a5783b2dE+0x2e0>
    97c2:	48 8b 44 24 08       	mov    0x8(%rsp),%rax
    97c7:	48 85 c0             	test   %rax,%rax
    97ca:	0f 84 80 fe ff ff    	je     9650 <_ZN3std4sync4once4Once10call_inner17h4030b088a5783b2dE+0x200>
    97d0:	f0 48 83 28 01       	lock subq $0x1,(%rax)
    97d5:	0f 85 75 fe ff ff    	jne    9650 <_ZN3std4sync4once4Once10call_inner17h4030b088a5783b2dE+0x200>
    97db:	48 8b 7c 24 08       	mov    0x8(%rsp),%rdi
    97e0:	e8 cb 68 00 00       	callq  100b0 <_ZN5alloc4sync12Arc$LT$T$GT$9drop_slow17h0bc34de18c6d6243E>
    97e5:	e9 66 fe ff ff       	jmpq   9650 <_ZN3std4sync4once4Once10call_inner17h4030b088a5783b2dE+0x200>
    97ea:	66 0f 1f 44 00 00    	nopw   0x0(%rax,%rax,1)
    97f0:	31 c0                	xor    %eax,%eax
    97f2:	48 8b 4c 24 20       	mov    0x20(%rsp),%rcx
    97f7:	f0 4c 0f b1 21       	lock cmpxchg %r12,(%rcx)
    97fc:	48 89 c3             	mov    %rax,%rbx
    97ff:	0f 85 53 fe ff ff    	jne    9658 <_ZN3std4sync4once4Once10call_inner17h4030b088a5783b2dE+0x208>
    9805:	48 8b 44 24 20       	mov    0x20(%rsp),%rax
    980a:	48 89 44 24 28       	mov    %rax,0x28(%rsp)
    980f:	48 c7 44 24 30 01 00 	movq   $0x1,0x30(%rsp)
    9816:	00 00 
    9818:	49 83 fd 01          	cmp    $0x1,%r13
    981c:	0f 94 44 24 10       	sete   0x10(%rsp)
    9821:	48 c7 44 24 08 03 00 	movq   $0x3,0x8(%rsp)
    9828:	00 00 
    982a:	48 8d 74 24 08       	lea    0x8(%rsp),%rsi
    982f:	48 8b 7c 24 38       	mov    0x38(%rsp),%rdi
    9834:	48 8b 44 24 40       	mov    0x40(%rsp),%rax
    9839:	ff 50 18             	callq  *0x18(%rax)
    983c:	48 8b 44 24 08       	mov    0x8(%rsp),%rax
    9841:	48 89 44 24 30       	mov    %rax,0x30(%rsp)
    9846:	48 8d 7c 24 28       	lea    0x28(%rsp),%rdi
    984b:	ff 15 17 e7 23 00    	callq  *0x23e717(%rip)        # 247f68 <_GLOBAL_OFFSET_TABLE_+0x5c0>
    9851:	48 83 c4 48          	add    $0x48,%rsp
    9855:	5b                   	pop    %rbx
    9856:	41 5c                	pop    %r12
    9858:	41 5d                	pop    %r13
    985a:	41 5e                	pop    %r14
    985c:	41 5f                	pop    %r15
    985e:	5d                   	pop    %rbp
    985f:	c3                   	retq   
    9860:	48 8d 3d 00 0c 03 00 	lea    0x30c00(%rip),%rdi        # 3a467 <str.5+0x4e7>
    9867:	48 8d 15 02 c2 23 00 	lea    0x23c202(%rip),%rdx        # 245a70 <__JCR_END__+0x5a8>
    986e:	be 5e 00 00 00       	mov    $0x5e,%esi
    9873:	ff 15 5f e6 23 00    	callq  *0x23e65f(%rip)        # 247ed8 <_GLOBAL_OFFSET_TABLE_+0x530>
    9879:	0f 0b                	ud2    
    987b:	48 8d 3d e5 0b 03 00 	lea    0x30be5(%rip),%rdi        # 3a467 <str.5+0x4e7>
    9882:	48 8d 15 e7 c1 23 00 	lea    0x23c1e7(%rip),%rdx        # 245a70 <__JCR_END__+0x5a8>
    9889:	be 5e 00 00 00       	mov    $0x5e,%esi
    988e:	ff 15 44 e6 23 00    	callq  *0x23e644(%rip)        # 247ed8 <_GLOBAL_OFFSET_TABLE_+0x530>
    9894:	0f 0b                	ud2    
    9896:	48 8d 3d a2 10 03 00 	lea    0x310a2(%rip),%rdi        # 3a93f <str.5+0x9bf>
    989d:	48 8d 15 2c c6 23 00 	lea    0x23c62c(%rip),%rdx        # 245ed0 <__JCR_END__+0xa08>
    98a4:	be 39 00 00 00       	mov    $0x39,%esi
    98a9:	ff 15 f1 e5 23 00    	callq  *0x23e5f1(%rip)        # 247ea0 <_GLOBAL_OFFSET_TABLE_+0x4f8>
    98af:	0f 0b                	ud2    
    98b1:	48 8d 3d c0 10 03 00 	lea    0x310c0(%rip),%rdi        # 3a978 <str.5+0x9f8>
    98b8:	48 8d 15 29 c6 23 00 	lea    0x23c629(%rip),%rdx        # 245ee8 <__JCR_END__+0xa20>
    98bf:	be 2a 00 00 00       	mov    $0x2a,%esi
    98c4:	e8 77 01 00 00       	callq  9a40 <_ZN3std9panicking11begin_panic17h4f747359d0610b9aE>
    98c9:	0f 0b                	ud2    
    98cb:	48 89 c3             	mov    %rax,%rbx
    98ce:	48 8d 7c 24 28       	lea    0x28(%rsp),%rdi
    98d3:	e8 48 40 00 00       	callq  d920 <_ZN4core3ptr49drop_in_place$LT$std..sync..once..WaiterQueue$GT$17h753d6190571c2521E>
    98d8:	eb 11                	jmp    98eb <_ZN3std4sync4once4Once10call_inner17h4030b088a5783b2dE+0x49b>
    98da:	eb 02                	jmp    98de <_ZN3std4sync4once4Once10call_inner17h4030b088a5783b2dE+0x48e>
    98dc:	eb 00                	jmp    98de <_ZN3std4sync4once4Once10call_inner17h4030b088a5783b2dE+0x48e>
    98de:	48 89 c3             	mov    %rax,%rbx
    98e1:	48 8d 7c 24 08       	lea    0x8(%rsp),%rdi
    98e6:	e8 85 3f 00 00       	callq  d870 <_ZN4core3ptr44drop_in_place$LT$std..sync..once..Waiter$GT$17hce4f0a5be0f5f787E>
    98eb:	48 89 df             	mov    %rbx,%rdi
    98ee:	e8 25 e7 ff ff       	callq  8018 <_init+0x60>
    98f3:	0f 0b                	ud2    
    98f5:	66 2e 0f 1f 84 00 00 	nopw   %cs:0x0(%rax,%rax,1)
    98fc:	00 00 00 
    98ff:	90                   	nop

0000000000009900 <_ZN3std9panicking11panic_count17is_zero_slow_path17hd5bf1e4cf2417278E>:
    9900:	50                   	push   %rax
    9901:	66 66 66 64 48 8b 04 	data16 data16 data16 mov %fs:0x0,%rax
    9908:	25 00 00 00 00 
    990d:	83 b8 e0 ff ff ff 01 	cmpl   $0x1,-0x20(%rax)
    9914:	75 09                	jne    991f <_ZN3std9panicking11panic_count17is_zero_slow_path17hd5bf1e4cf2417278E+0x1f>
    9916:	48 8d 80 e8 ff ff ff 	lea    -0x18(%rax),%rax
    991d:	eb 0a                	jmp    9929 <_ZN3std9panicking11panic_count17is_zero_slow_path17hd5bf1e4cf2417278E+0x29>
    991f:	e8 bc e0 00 00       	callq  179e0 <_ZN3std6thread5local4fast12Key$LT$T$GT$14try_initialize17hd3c07eb2f092ba5aE>
    9924:	48 85 c0             	test   %rax,%rax
    9927:	74 09                	je     9932 <_ZN3std9panicking11panic_count17is_zero_slow_path17hd5bf1e4cf2417278E+0x32>
    9929:	48 83 38 00          	cmpq   $0x0,(%rax)
    992d:	0f 94 c0             	sete   %al
    9930:	59                   	pop    %rcx
    9931:	c3                   	retq   
    9932:	48 8d 3d c9 0a 03 00 	lea    0x30ac9(%rip),%rdi        # 3a402 <str.5+0x482>
    9939:	48 8d 0d 68 be 23 00 	lea    0x23be68(%rip),%rcx        # 2457a8 <__JCR_END__+0x2e0>
    9940:	4c 8d 05 11 c1 23 00 	lea    0x23c111(%rip),%r8        # 245a58 <__JCR_END__+0x590>
    9947:	48 89 e2             	mov    %rsp,%rdx
    994a:	be 46 00 00 00       	mov    $0x46,%esi
    994f:	ff 15 2b e5 23 00    	callq  *0x23e52b(%rip)        # 247e80 <_GLOBAL_OFFSET_TABLE_+0x4d8>
    9955:	0f 0b                	ud2    
    9957:	66 0f 1f 84 00 00 00 	nopw   0x0(%rax,%rax,1)
    995e:	00 00 

0000000000009960 <_ZN3std9panicking3try7cleanup17h5eb45a9ae0fed2efE>:
    9960:	41 56                	push   %r14
    9962:	53                   	push   %rbx
    9963:	48 83 ec 18          	sub    $0x18,%rsp
    9967:	ff 15 5b e5 23 00    	callq  *0x23e55b(%rip)        # 247ec8 <_GLOBAL_OFFSET_TABLE_+0x520>
    996d:	48 89 c3             	mov    %rax,%rbx
    9970:	49 89 d6             	mov    %rdx,%r14
    9973:	48 89 44 24 08       	mov    %rax,0x8(%rsp)
    9978:	48 89 54 24 10       	mov    %rdx,0x10(%rsp)
    997d:	48 8d 05 ec e7 23 00 	lea    0x23e7ec(%rip),%rax        # 248170 <_ZN3std9panicking11panic_count18GLOBAL_PANIC_COUNT17h365ca4d6b06ccc1aE>
    9984:	f0 48 83 28 01       	lock subq $0x1,(%rax)
    9989:	66 66 66 64 48 8b 04 	data16 data16 data16 mov %fs:0x0,%rax
    9990:	25 00 00 00 00 
    9995:	83 b8 e0 ff ff ff 01 	cmpl   $0x1,-0x20(%rax)
    999c:	75 09                	jne    99a7 <_ZN3std9panicking3try7cleanup17h5eb45a9ae0fed2efE+0x47>
    999e:	48 8d 80 e8 ff ff ff 	lea    -0x18(%rax),%rax
    99a5:	eb 0a                	jmp    99b1 <_ZN3std9panicking3try7cleanup17h5eb45a9ae0fed2efE+0x51>
    99a7:	e8 34 e0 00 00       	callq  179e0 <_ZN3std6thread5local4fast12Key$LT$T$GT$14try_initialize17hd3c07eb2f092ba5aE>
    99ac:	48 85 c0             	test   %rax,%rax
    99af:	74 12                	je     99c3 <_ZN3std9panicking3try7cleanup17h5eb45a9ae0fed2efE+0x63>
    99b1:	48 83 00 ff          	addq   $0xffffffffffffffff,(%rax)
    99b5:	48 89 d8             	mov    %rbx,%rax
    99b8:	4c 89 f2             	mov    %r14,%rdx
    99bb:	48 83 c4 18          	add    $0x18,%rsp
    99bf:	5b                   	pop    %rbx
    99c0:	41 5e                	pop    %r14
    99c2:	c3                   	retq   
    99c3:	48 8d 3d 38 0a 03 00 	lea    0x30a38(%rip),%rdi        # 3a402 <str.5+0x482>
    99ca:	48 8d 0d d7 bd 23 00 	lea    0x23bdd7(%rip),%rcx        # 2457a8 <__JCR_END__+0x2e0>
    99d1:	4c 8d 05 80 c0 23 00 	lea    0x23c080(%rip),%r8        # 245a58 <__JCR_END__+0x590>
    99d8:	48 89 e2             	mov    %rsp,%rdx
    99db:	be 46 00 00 00       	mov    $0x46,%esi
    99e0:	ff 15 9a e4 23 00    	callq  *0x23e49a(%rip)        # 247e80 <_GLOBAL_OFFSET_TABLE_+0x4d8>
    99e6:	0f 0b                	ud2    
    99e8:	48 89 c3             	mov    %rax,%rbx
    99eb:	48 8d 7c 24 08       	lea    0x8(%rsp),%rdi
    99f0:	e8 cb 3b 00 00       	callq  d5c0 <_ZN4core3ptr202drop_in_place$LT$alloc..boxed..Box$LT$dyn$u20$core..ops..function..Fn$LT$$LP$$RF$core..panic..PanicInfo$C$$RP$$GT$$u2b$Output$u20$$u3d$$u20$$LP$$RP$$u2b$core..marker..Send$u2b$core..marker..Sync$GT$$GT$17hd4afb1fba6d44738E>
    99f5:	48 89 df             	mov    %rbx,%rdi
    99f8:	e8 1b e6 ff ff       	callq  8018 <_init+0x60>
    99fd:	0f 0b                	ud2    
    99ff:	90                   	nop

0000000000009a00 <_ZN3std9panicking15begin_panic_fmt17h5479575e112541f8E>:
    9a00:	53                   	push   %rbx
    9a01:	48 83 ec 20          	sub    $0x20,%rsp
    9a05:	48 89 fb             	mov    %rdi,%rbx
    9a08:	48 89 f7             	mov    %rsi,%rdi
    9a0b:	ff 15 e7 df 23 00    	callq  *0x23dfe7(%rip)        # 2479f8 <_GLOBAL_OFFSET_TABLE_+0x50>
    9a11:	48 8d 0d f0 04 03 00 	lea    0x304f0(%rip),%rcx        # 39f08 <str.0+0x1208>
    9a18:	48 89 0c 24          	mov    %rcx,(%rsp)
    9a1c:	48 8d 0d 8d bc 23 00 	lea    0x23bc8d(%rip),%rcx        # 2456b0 <__JCR_END__+0x1e8>
    9a23:	48 89 4c 24 08       	mov    %rcx,0x8(%rsp)
    9a28:	48 89 5c 24 10       	mov    %rbx,0x10(%rsp)
    9a2d:	48 89 44 24 18       	mov    %rax,0x18(%rsp)
    9a32:	48 89 e7             	mov    %rsp,%rdi
    9a35:	ff 15 65 e1 23 00    	callq  *0x23e165(%rip)        # 247ba0 <_GLOBAL_OFFSET_TABLE_+0x1f8>
    9a3b:	0f 0b                	ud2    
    9a3d:	0f 1f 00             	nopl   (%rax)

0000000000009a40 <_ZN3std9panicking11begin_panic17h4f747359d0610b9aE>:
    9a40:	41 56                	push   %r14
    9a42:	53                   	push   %rbx
    9a43:	48 83 ec 18          	sub    $0x18,%rsp
    9a47:	49 89 f6             	mov    %rsi,%r14
    9a4a:	48 89 fb             	mov    %rdi,%rbx
    9a4d:	48 89 d7             	mov    %rdx,%rdi
    9a50:	ff 15 a2 df 23 00    	callq  *0x23dfa2(%rip)        # 2479f8 <_GLOBAL_OFFSET_TABLE_+0x50>
    9a56:	48 89 1c 24          	mov    %rbx,(%rsp)
    9a5a:	4c 89 74 24 08       	mov    %r14,0x8(%rsp)
    9a5f:	48 89 44 24 10       	mov    %rax,0x10(%rsp)
    9a64:	48 89 e7             	mov    %rsp,%rdi
    9a67:	e8 a4 1c 01 00       	callq  1b710 <_ZN3std10sys_common9backtrace26__rust_end_short_backtrace17h9510086f7c72e23dE>
    9a6c:	0f 0b                	ud2    
    9a6e:	66 90                	xchg   %ax,%ax

0000000000009a70 <_ZN3std3sys4unix4weak13Weak$LT$F$GT$10initialize17h110177e884522649E>:
    9a70:	41 57                	push   %r15
    9a72:	41 56                	push   %r14
    9a74:	53                   	push   %rbx
    9a75:	4c 8b 3d bc e5 23 00 	mov    0x23e5bc(%rip),%r15        # 248038 <_ZN3std3sys4unix2fs9try_statx5statx5statx17h67fc9993570dea23E>
    9a7c:	48 8b 1d bd e5 23 00 	mov    0x23e5bd(%rip),%rbx        # 248040 <_ZN3std3sys4unix2fs9try_statx5statx5statx17h67fc9993570dea23E+0x8>
    9a83:	4c 89 ff             	mov    %r15,%rdi
    9a86:	31 f6                	xor    %esi,%esi
    9a88:	48 89 da             	mov    %rbx,%rdx
    9a8b:	ff 15 c7 e1 23 00    	callq  *0x23e1c7(%rip)        # 247c58 <_GLOBAL_OFFSET_TABLE_+0x2b0>
    9a91:	48 85 c0             	test   %rax,%rax
    9a94:	74 2b                	je     9ac1 <_ZN3std3sys4unix4weak13Weak$LT$F$GT$10initialize17h110177e884522649E+0x51>
    9a96:	4c 29 f8             	sub    %r15,%rax
    9a99:	48 83 c0 01          	add    $0x1,%rax
    9a9d:	48 39 d8             	cmp    %rbx,%rax
    9aa0:	75 1f                	jne    9ac1 <_ZN3std3sys4unix4weak13Weak$LT$F$GT$10initialize17h110177e884522649E+0x51>
    9aa2:	45 31 f6             	xor    %r14d,%r14d
    9aa5:	31 ff                	xor    %edi,%edi
    9aa7:	4c 89 fe             	mov    %r15,%rsi
    9aaa:	ff 15 c8 e4 23 00    	callq  *0x23e4c8(%rip)        # 247f78 <_GLOBAL_OFFSET_TABLE_+0x5d0>
    9ab0:	48 89 05 91 e5 23 00 	mov    %rax,0x23e591(%rip)        # 248048 <_ZN3std3sys4unix2fs9try_statx5statx5statx17h67fc9993570dea23E+0x10>
    9ab7:	48 85 c0             	test   %rax,%rax
    9aba:	74 13                	je     9acf <_ZN3std3sys4unix4weak13Weak$LT$F$GT$10initialize17h110177e884522649E+0x5f>
    9abc:	49 89 c6             	mov    %rax,%r14
    9abf:	eb 0e                	jmp    9acf <_ZN3std3sys4unix4weak13Weak$LT$F$GT$10initialize17h110177e884522649E+0x5f>
    9ac1:	48 c7 05 7c e5 23 00 	movq   $0x0,0x23e57c(%rip)        # 248048 <_ZN3std3sys4unix2fs9try_statx5statx5statx17h67fc9993570dea23E+0x10>
    9ac8:	00 00 00 00 
    9acc:	45 31 f6             	xor    %r14d,%r14d
    9acf:	4c 89 f0             	mov    %r14,%rax
    9ad2:	5b                   	pop    %rbx
    9ad3:	41 5e                	pop    %r14
    9ad5:	41 5f                	pop    %r15
    9ad7:	c3                   	retq   
    9ad8:	0f 1f 84 00 00 00 00 	nopl   0x0(%rax,%rax,1)
    9adf:	00 

0000000000009ae0 <_ZN5alloc7raw_vec19RawVec$LT$T$C$A$GT$7reserve21do_reserve_and_handle17h483efeb4f4261be6E>:
    9ae0:	53                   	push   %rbx
    9ae1:	48 83 ec 30          	sub    $0x30,%rsp
    9ae5:	48 89 f0             	mov    %rsi,%rax
    9ae8:	48 01 d0             	add    %rdx,%rax
    9aeb:	72 75                	jb     9b62 <_ZN5alloc7raw_vec19RawVec$LT$T$C$A$GT$7reserve21do_reserve_and_handle17h483efeb4f4261be6E+0x82>
    9aed:	48 89 fb             	mov    %rdi,%rbx
    9af0:	48 8b 4f 08          	mov    0x8(%rdi),%rcx
    9af4:	48 8d 14 09          	lea    (%rcx,%rcx,1),%rdx
    9af8:	48 39 c2             	cmp    %rax,%rdx
    9afb:	48 0f 47 c2          	cmova  %rdx,%rax
    9aff:	48 83 f8 08          	cmp    $0x8,%rax
    9b03:	be 08 00 00 00       	mov    $0x8,%esi
    9b08:	48 0f 47 f0          	cmova  %rax,%rsi
    9b0c:	48 85 c9             	test   %rcx,%rcx
    9b0f:	74 18                	je     9b29 <_ZN5alloc7raw_vec19RawVec$LT$T$C$A$GT$7reserve21do_reserve_and_handle17h483efeb4f4261be6E+0x49>
    9b11:	48 8b 03             	mov    (%rbx),%rax
    9b14:	48 89 44 24 18       	mov    %rax,0x18(%rsp)
    9b19:	48 89 4c 24 20       	mov    %rcx,0x20(%rsp)
    9b1e:	48 c7 44 24 28 01 00 	movq   $0x1,0x28(%rsp)
    9b25:	00 00 
    9b27:	eb 09                	jmp    9b32 <_ZN5alloc7raw_vec19RawVec$LT$T$C$A$GT$7reserve21do_reserve_and_handle17h483efeb4f4261be6E+0x52>
    9b29:	48 c7 44 24 18 00 00 	movq   $0x0,0x18(%rsp)
    9b30:	00 00 
    9b32:	48 89 e7             	mov    %rsp,%rdi
    9b35:	48 8d 4c 24 18       	lea    0x18(%rsp),%rcx
    9b3a:	ba 01 00 00 00       	mov    $0x1,%edx
    9b3f:	e8 2c 24 02 00       	callq  2bf70 <_ZN5alloc7raw_vec11finish_grow17he94ebd471e1a9a49E>
    9b44:	83 3c 24 01          	cmpl   $0x1,(%rsp)
    9b48:	74 0e                	je     9b58 <_ZN5alloc7raw_vec19RawVec$LT$T$C$A$GT$7reserve21do_reserve_and_handle17h483efeb4f4261be6E+0x78>
    9b4a:	0f 10 44 24 08       	movups 0x8(%rsp),%xmm0
    9b4f:	0f 11 03             	movups %xmm0,(%rbx)
    9b52:	48 83 c4 30          	add    $0x30,%rsp
    9b56:	5b                   	pop    %rbx
    9b57:	c3                   	retq   
    9b58:	48 8b 74 24 10       	mov    0x10(%rsp),%rsi
    9b5d:	48 85 f6             	test   %rsi,%rsi
    9b60:	75 08                	jne    9b6a <_ZN5alloc7raw_vec19RawVec$LT$T$C$A$GT$7reserve21do_reserve_and_handle17h483efeb4f4261be6E+0x8a>
    9b62:	ff 15 88 e3 23 00    	callq  *0x23e388(%rip)        # 247ef0 <_GLOBAL_OFFSET_TABLE_+0x548>
    9b68:	0f 0b                	ud2    
    9b6a:	48 8b 7c 24 08       	mov    0x8(%rsp),%rdi
    9b6f:	ff 15 eb de 23 00    	callq  *0x23deeb(%rip)        # 247a60 <_GLOBAL_OFFSET_TABLE_+0xb8>
    9b75:	0f 0b                	ud2    
    9b77:	66 0f 1f 84 00 00 00 	nopw   0x0(%rax,%rax,1)
    9b7e:	00 00 

0000000000009b80 <_ZN4core9panicking13assert_failed17had1f7f3c9b769ff9E>:
    9b80:	48 83 ec 58          	sub    $0x58,%rsp
    9b84:	48 89 7c 24 10       	mov    %rdi,0x10(%rsp)
    9b89:	48 8d 05 e0 0a 03 00 	lea    0x30ae0(%rip),%rax        # 3a670 <str.5+0x6f0>
    9b90:	48 89 44 24 18       	mov    %rax,0x18(%rsp)
    9b95:	0f 10 06             	movups (%rsi),%xmm0
    9b98:	0f 10 4e 10          	movups 0x10(%rsi),%xmm1
    9b9c:	0f 10 56 20          	movups 0x20(%rsi),%xmm2
    9ba0:	0f 29 54 24 40       	movaps %xmm2,0x40(%rsp)
    9ba5:	0f 29 4c 24 30       	movaps %xmm1,0x30(%rsp)
    9baa:	0f 29 44 24 20       	movaps %xmm0,0x20(%rsp)
    9baf:	48 8d 05 42 d1 23 00 	lea    0x23d142(%rip),%rax        # 246cf8 <__JCR_END__+0x1830>
    9bb6:	48 89 04 24          	mov    %rax,(%rsp)
    9bba:	48 8d 15 87 d0 23 00 	lea    0x23d087(%rip),%rdx        # 246c48 <__JCR_END__+0x1780>
    9bc1:	48 8d 74 24 10       	lea    0x10(%rsp),%rsi
    9bc6:	48 8d 4c 24 18       	lea    0x18(%rsp),%rcx
    9bcb:	4c 8d 4c 24 20       	lea    0x20(%rsp),%r9
    9bd0:	bf 01 00 00 00       	mov    $0x1,%edi
    9bd5:	49 89 d0             	mov    %rdx,%r8
    9bd8:	ff 15 f2 e1 23 00    	callq  *0x23e1f2(%rip)        # 247dd0 <_GLOBAL_OFFSET_TABLE_+0x428>
    9bde:	0f 0b                	ud2    

0000000000009be0 <_ZN5alloc7raw_vec19RawVec$LT$T$C$A$GT$7reserve21do_reserve_and_handle17h0eeed448a6239ac1E>:
    9be0:	41 56                	push   %r14
    9be2:	53                   	push   %rbx
    9be3:	48 83 ec 38          	sub    $0x38,%rsp
    9be7:	48 ff c6             	inc    %rsi
    9bea:	0f 84 aa 00 00 00    	je     9c9a <_ZN5alloc7raw_vec19RawVec$LT$T$C$A$GT$7reserve21do_reserve_and_handle17h0eeed448a6239ac1E+0xba>
    9bf0:	49 89 fe             	mov    %rdi,%r14
    9bf3:	48 8b 4f 08          	mov    0x8(%rdi),%rcx
    9bf7:	48 8d 04 09          	lea    (%rcx,%rcx,1),%rax
    9bfb:	48 39 f0             	cmp    %rsi,%rax
    9bfe:	48 0f 47 f0          	cmova  %rax,%rsi
    9c02:	48 83 fe 04          	cmp    $0x4,%rsi
    9c06:	b8 04 00 00 00       	mov    $0x4,%eax
    9c0b:	48 0f 47 c6          	cmova  %rsi,%rax
    9c0f:	ba 70 00 00 00       	mov    $0x70,%edx
    9c14:	31 db                	xor    %ebx,%ebx
    9c16:	48 f7 e2             	mul    %rdx
    9c19:	0f 91 c3             	setno  %bl
    9c1c:	48 c1 e3 03          	shl    $0x3,%rbx
    9c20:	48 85 c9             	test   %rcx,%rcx
    9c23:	74 1c                	je     9c41 <_ZN5alloc7raw_vec19RawVec$LT$T$C$A$GT$7reserve21do_reserve_and_handle17h0eeed448a6239ac1E+0x61>
    9c25:	49 8b 16             	mov    (%r14),%rdx
    9c28:	48 6b c9 70          	imul   $0x70,%rcx,%rcx
    9c2c:	48 89 54 24 20       	mov    %rdx,0x20(%rsp)
    9c31:	48 89 4c 24 28       	mov    %rcx,0x28(%rsp)
    9c36:	48 c7 44 24 30 08 00 	movq   $0x8,0x30(%rsp)
    9c3d:	00 00 
    9c3f:	eb 09                	jmp    9c4a <_ZN5alloc7raw_vec19RawVec$LT$T$C$A$GT$7reserve21do_reserve_and_handle17h0eeed448a6239ac1E+0x6a>
    9c41:	48 c7 44 24 20 00 00 	movq   $0x0,0x20(%rsp)
    9c48:	00 00 
    9c4a:	48 8d 7c 24 08       	lea    0x8(%rsp),%rdi
    9c4f:	48 8d 4c 24 20       	lea    0x20(%rsp),%rcx
    9c54:	48 89 c6             	mov    %rax,%rsi
    9c57:	48 89 da             	mov    %rbx,%rdx
    9c5a:	e8 21 26 02 00       	callq  2c280 <_ZN5alloc7raw_vec11finish_grow17hd747265eea55c4e6E>
    9c5f:	83 7c 24 08 01       	cmpl   $0x1,0x8(%rsp)
    9c64:	74 2a                	je     9c90 <_ZN5alloc7raw_vec19RawVec$LT$T$C$A$GT$7reserve21do_reserve_and_handle17h0eeed448a6239ac1E+0xb0>
    9c66:	48 8b 4c 24 10       	mov    0x10(%rsp),%rcx
    9c6b:	48 8b 44 24 18       	mov    0x18(%rsp),%rax
    9c70:	49 89 0e             	mov    %rcx,(%r14)
    9c73:	48 c1 e8 04          	shr    $0x4,%rax
    9c77:	48 b9 93 24 49 92 24 	movabs $0x2492492492492493,%rcx
    9c7e:	49 92 24 
    9c81:	48 f7 e1             	mul    %rcx
    9c84:	49 89 56 08          	mov    %rdx,0x8(%r14)
    9c88:	48 83 c4 38          	add    $0x38,%rsp
    9c8c:	5b                   	pop    %rbx
    9c8d:	41 5e                	pop    %r14
    9c8f:	c3                   	retq   
    9c90:	48 8b 74 24 18       	mov    0x18(%rsp),%rsi
    9c95:	48 85 f6             	test   %rsi,%rsi
    9c98:	75 08                	jne    9ca2 <_ZN5alloc7raw_vec19RawVec$LT$T$C$A$GT$7reserve21do_reserve_and_handle17h0eeed448a6239ac1E+0xc2>
    9c9a:	ff 15 50 e2 23 00    	callq  *0x23e250(%rip)        # 247ef0 <_GLOBAL_OFFSET_TABLE_+0x548>
    9ca0:	0f 0b                	ud2    
    9ca2:	48 8b 7c 24 10       	mov    0x10(%rsp),%rdi
    9ca7:	ff 15 b3 dd 23 00    	callq  *0x23ddb3(%rip)        # 247a60 <_GLOBAL_OFFSET_TABLE_+0xb8>
    9cad:	0f 0b                	ud2    
    9caf:	90                   	nop

0000000000009cb0 <_ZN5alloc7raw_vec19RawVec$LT$T$C$A$GT$7reserve21do_reserve_and_handle17h13c62b4305d00c9fE>:
    9cb0:	41 56                	push   %r14
    9cb2:	53                   	push   %rbx
    9cb3:	48 83 ec 38          	sub    $0x38,%rsp
    9cb7:	48 ff c6             	inc    %rsi
    9cba:	0f 84 9d 00 00 00    	je     9d5d <_ZN5alloc7raw_vec19RawVec$LT$T$C$A$GT$7reserve21do_reserve_and_handle17h13c62b4305d00c9fE+0xad>
    9cc0:	49 89 fe             	mov    %rdi,%r14
    9cc3:	48 8b 4f 08          	mov    0x8(%rdi),%rcx
    9cc7:	48 8d 04 09          	lea    (%rcx,%rcx,1),%rax
    9ccb:	48 39 f0             	cmp    %rsi,%rax
    9cce:	48 0f 47 f0          	cmova  %rax,%rsi
    9cd2:	48 83 fe 04          	cmp    $0x4,%rsi
    9cd6:	b8 04 00 00 00       	mov    $0x4,%eax
    9cdb:	48 0f 47 c6          	cmova  %rsi,%rax
    9cdf:	ba 10 00 00 00       	mov    $0x10,%edx
    9ce4:	31 db                	xor    %ebx,%ebx
    9ce6:	48 f7 e2             	mul    %rdx
    9ce9:	0f 91 c3             	setno  %bl
    9cec:	48 c1 e3 03          	shl    $0x3,%rbx
    9cf0:	48 85 c9             	test   %rcx,%rcx
    9cf3:	74 1c                	je     9d11 <_ZN5alloc7raw_vec19RawVec$LT$T$C$A$GT$7reserve21do_reserve_and_handle17h13c62b4305d00c9fE+0x61>
    9cf5:	49 8b 16             	mov    (%r14),%rdx
    9cf8:	48 c1 e1 04          	shl    $0x4,%rcx
    9cfc:	48 89 54 24 20       	mov    %rdx,0x20(%rsp)
    9d01:	48 89 4c 24 28       	mov    %rcx,0x28(%rsp)
    9d06:	48 c7 44 24 30 08 00 	movq   $0x8,0x30(%rsp)
    9d0d:	00 00 
    9d0f:	eb 09                	jmp    9d1a <_ZN5alloc7raw_vec19RawVec$LT$T$C$A$GT$7reserve21do_reserve_and_handle17h13c62b4305d00c9fE+0x6a>
    9d11:	48 c7 44 24 20 00 00 	movq   $0x0,0x20(%rsp)
    9d18:	00 00 
    9d1a:	48 8d 7c 24 08       	lea    0x8(%rsp),%rdi
    9d1f:	48 8d 4c 24 20       	lea    0x20(%rsp),%rcx
    9d24:	48 89 c6             	mov    %rax,%rsi
    9d27:	48 89 da             	mov    %rbx,%rdx
    9d2a:	e8 51 25 02 00       	callq  2c280 <_ZN5alloc7raw_vec11finish_grow17hd747265eea55c4e6E>
    9d2f:	83 7c 24 08 01       	cmpl   $0x1,0x8(%rsp)
    9d34:	74 1d                	je     9d53 <_ZN5alloc7raw_vec19RawVec$LT$T$C$A$GT$7reserve21do_reserve_and_handle17h13c62b4305d00c9fE+0xa3>
    9d36:	48 8b 44 24 10       	mov    0x10(%rsp),%rax
    9d3b:	48 8b 4c 24 18       	mov    0x18(%rsp),%rcx
    9d40:	49 89 06             	mov    %rax,(%r14)
    9d43:	48 c1 e9 04          	shr    $0x4,%rcx
    9d47:	49 89 4e 08          	mov    %rcx,0x8(%r14)
    9d4b:	48 83 c4 38          	add    $0x38,%rsp
    9d4f:	5b                   	pop    %rbx
    9d50:	41 5e                	pop    %r14
    9d52:	c3                   	retq   
    9d53:	48 8b 74 24 18       	mov    0x18(%rsp),%rsi
    9d58:	48 85 f6             	test   %rsi,%rsi
    9d5b:	75 08                	jne    9d65 <_ZN5alloc7raw_vec19RawVec$LT$T$C$A$GT$7reserve21do_reserve_and_handle17h13c62b4305d00c9fE+0xb5>
    9d5d:	ff 15 8d e1 23 00    	callq  *0x23e18d(%rip)        # 247ef0 <_GLOBAL_OFFSET_TABLE_+0x548>
    9d63:	0f 0b                	ud2    
    9d65:	48 8b 7c 24 10       	mov    0x10(%rsp),%rdi
    9d6a:	ff 15 f0 dc 23 00    	callq  *0x23dcf0(%rip)        # 247a60 <_GLOBAL_OFFSET_TABLE_+0xb8>
    9d70:	0f 0b                	ud2    
    9d72:	66 2e 0f 1f 84 00 00 	nopw   %cs:0x0(%rax,%rax,1)
    9d79:	00 00 00 
    9d7c:	0f 1f 40 00          	nopl   0x0(%rax)

0000000000009d80 <_ZN5alloc5alloc18handle_alloc_error17hcd24ea096104b31cE>:
    9d80:	50                   	push   %rax
    9d81:	ff 15 c9 df 23 00    	callq  *0x23dfc9(%rip)        # 247d50 <_GLOBAL_OFFSET_TABLE_+0x3a8>
    9d87:	0f 0b                	ud2    
    9d89:	0f 1f 80 00 00 00 00 	nopl   0x0(%rax)

0000000000009d90 <_ZN5alloc7raw_vec19RawVec$LT$T$C$A$GT$7reserve21do_reserve_and_handle17he0fa5739588854beE>:
    9d90:	53                   	push   %rbx
    9d91:	48 83 ec 30          	sub    $0x30,%rsp
    9d95:	48 89 f0             	mov    %rsi,%rax
    9d98:	48 01 d0             	add    %rdx,%rax
    9d9b:	72 75                	jb     9e12 <_ZN5alloc7raw_vec19RawVec$LT$T$C$A$GT$7reserve21do_reserve_and_handle17he0fa5739588854beE+0x82>
    9d9d:	48 89 fb             	mov    %rdi,%rbx
    9da0:	48 8b 4f 08          	mov    0x8(%rdi),%rcx
    9da4:	48 8d 14 09          	lea    (%rcx,%rcx,1),%rdx
    9da8:	48 39 c2             	cmp    %rax,%rdx
    9dab:	48 0f 47 c2          	cmova  %rdx,%rax
    9daf:	48 83 f8 08          	cmp    $0x8,%rax
    9db3:	be 08 00 00 00       	mov    $0x8,%esi
    9db8:	48 0f 47 f0          	cmova  %rax,%rsi
    9dbc:	48 85 c9             	test   %rcx,%rcx
    9dbf:	74 18                	je     9dd9 <_ZN5alloc7raw_vec19RawVec$LT$T$C$A$GT$7reserve21do_reserve_and_handle17he0fa5739588854beE+0x49>
    9dc1:	48 8b 03             	mov    (%rbx),%rax
    9dc4:	48 89 44 24 18       	mov    %rax,0x18(%rsp)
    9dc9:	48 89 4c 24 20       	mov    %rcx,0x20(%rsp)
    9dce:	48 c7 44 24 28 01 00 	movq   $0x1,0x28(%rsp)
    9dd5:	00 00 
    9dd7:	eb 09                	jmp    9de2 <_ZN5alloc7raw_vec19RawVec$LT$T$C$A$GT$7reserve21do_reserve_and_handle17he0fa5739588854beE+0x52>
    9dd9:	48 c7 44 24 18 00 00 	movq   $0x0,0x18(%rsp)
    9de0:	00 00 
    9de2:	48 89 e7             	mov    %rsp,%rdi
    9de5:	48 8d 4c 24 18       	lea    0x18(%rsp),%rcx
    9dea:	ba 01 00 00 00       	mov    $0x1,%edx
    9def:	e8 dc 96 02 00       	callq  334d0 <_ZN5alloc7raw_vec11finish_grow17hee8a77037943cdabE>
    9df4:	83 3c 24 01          	cmpl   $0x1,(%rsp)
    9df8:	74 0e                	je     9e08 <_ZN5alloc7raw_vec19RawVec$LT$T$C$A$GT$7reserve21do_reserve_and_handle17he0fa5739588854beE+0x78>
    9dfa:	0f 10 44 24 08       	movups 0x8(%rsp),%xmm0
    9dff:	0f 11 03             	movups %xmm0,(%rbx)
    9e02:	48 83 c4 30          	add    $0x30,%rsp
    9e06:	5b                   	pop    %rbx
    9e07:	c3                   	retq   
    9e08:	48 8b 74 24 10       	mov    0x10(%rsp),%rsi
    9e0d:	48 85 f6             	test   %rsi,%rsi
    9e10:	75 08                	jne    9e1a <_ZN5alloc7raw_vec19RawVec$LT$T$C$A$GT$7reserve21do_reserve_and_handle17he0fa5739588854beE+0x8a>
    9e12:	ff 15 d8 e0 23 00    	callq  *0x23e0d8(%rip)        # 247ef0 <_GLOBAL_OFFSET_TABLE_+0x548>
    9e18:	0f 0b                	ud2    
    9e1a:	48 8b 7c 24 08       	mov    0x8(%rsp),%rdi
    9e1f:	ff 15 3b dc 23 00    	callq  *0x23dc3b(%rip)        # 247a60 <_GLOBAL_OFFSET_TABLE_+0xb8>
    9e25:	0f 0b                	ud2    
    9e27:	66 0f 1f 84 00 00 00 	nopw   0x0(%rax,%rax,1)
    9e2e:	00 00 

0000000000009e30 <_ZN4core6option13expect_failed17hb6407502861d5eecE>:
    9e30:	48 83 ec 58          	sub    $0x58,%rsp
    9e34:	48 89 7c 24 08       	mov    %rdi,0x8(%rsp)
    9e39:	48 89 74 24 10       	mov    %rsi,0x10(%rsp)
    9e3e:	48 8d 44 24 08       	lea    0x8(%rsp),%rax
    9e43:	48 89 44 24 18       	mov    %rax,0x18(%rsp)
    9e48:	48 8d 05 31 e8 02 00 	lea    0x2e831(%rip),%rax        # 38680 <_ZN44_$LT$$RF$T$u20$as$u20$core..fmt..Display$GT$3fmt17h7d3101f0b0fb924fE>
    9e4f:	48 89 44 24 20       	mov    %rax,0x20(%rsp)
    9e54:	48 8d 05 3d d3 23 00 	lea    0x23d33d(%rip),%rax        # 247198 <__JCR_END__+0x1cd0>
    9e5b:	48 89 44 24 28       	mov    %rax,0x28(%rsp)
    9e60:	48 c7 44 24 30 01 00 	movq   $0x1,0x30(%rsp)
    9e67:	00 00 
    9e69:	48 c7 44 24 38 00 00 	movq   $0x0,0x38(%rsp)
    9e70:	00 00 
    9e72:	48 8d 44 24 18       	lea    0x18(%rsp),%rax
    9e77:	48 89 44 24 48       	mov    %rax,0x48(%rsp)
    9e7c:	48 c7 44 24 50 01 00 	movq   $0x1,0x50(%rsp)
    9e83:	00 00 
    9e85:	48 8d 7c 24 28       	lea    0x28(%rsp),%rdi
    9e8a:	48 89 d6             	mov    %rdx,%rsi
    9e8d:	ff 15 c5 de 23 00    	callq  *0x23dec5(%rip)        # 247d58 <_GLOBAL_OFFSET_TABLE_+0x3b0>
    9e93:	0f 0b                	ud2    
    9e95:	66 2e 0f 1f 84 00 00 	nopw   %cs:0x0(%rax,%rax,1)
    9e9c:	00 00 00 
    9e9f:	90                   	nop

0000000000009ea0 <_ZN4core9panicking5panic17h1a48d878ff3dcd40E>:
    9ea0:	48 83 ec 48          	sub    $0x48,%rsp
    9ea4:	48 89 7c 24 08       	mov    %rdi,0x8(%rsp)
    9ea9:	48 89 74 24 10       	mov    %rsi,0x10(%rsp)
    9eae:	48 8d 44 24 08       	lea    0x8(%rsp),%rax
    9eb3:	48 89 44 24 18       	mov    %rax,0x18(%rsp)
    9eb8:	48 c7 44 24 20 01 00 	movq   $0x1,0x20(%rsp)
    9ebf:	00 00 
    9ec1:	48 c7 44 24 28 00 00 	movq   $0x0,0x28(%rsp)
    9ec8:	00 00 
    9eca:	48 8d 05 e7 2a 03 00 	lea    0x32ae7(%rip),%rax        # 3c9b8 <_ZN4core7unicode12unicode_data11white_space17SHORT_OFFSET_RUNS17h37973815fb97fe0fE+0x298>
    9ed1:	48 89 44 24 38       	mov    %rax,0x38(%rsp)
    9ed6:	48 c7 44 24 40 00 00 	movq   $0x0,0x40(%rsp)
    9edd:	00 00 
    9edf:	48 8d 7c 24 18       	lea    0x18(%rsp),%rdi
    9ee4:	48 89 d6             	mov    %rdx,%rsi
    9ee7:	ff 15 6b de 23 00    	callq  *0x23de6b(%rip)        # 247d58 <_GLOBAL_OFFSET_TABLE_+0x3b0>
    9eed:	0f 0b                	ud2    
    9eef:	90                   	nop

0000000000009ef0 <_ZN4core9panicking18panic_bounds_check17h9e070d1e5867069bE>:
    9ef0:	48 83 ec 68          	sub    $0x68,%rsp
    9ef4:	48 89 7c 24 08       	mov    %rdi,0x8(%rsp)
    9ef9:	48 89 74 24 10       	mov    %rsi,0x10(%rsp)
    9efe:	48 8d 44 24 10       	lea    0x10(%rsp),%rax
    9f03:	48 89 44 24 18       	mov    %rax,0x18(%rsp)
    9f08:	48 8d 05 e1 e2 02 00 	lea    0x2e2e1(%rip),%rax        # 381f0 <_ZN4core3fmt3num3imp52_$LT$impl$u20$core..fmt..Display$u20$for$u20$u64$GT$3fmt17hbb166475dc51a6fcE>
    9f0f:	48 89 44 24 20       	mov    %rax,0x20(%rsp)
    9f14:	48 8d 4c 24 08       	lea    0x8(%rsp),%rcx
    9f19:	48 89 4c 24 28       	mov    %rcx,0x28(%rsp)
    9f1e:	48 89 44 24 30       	mov    %rax,0x30(%rsp)
    9f23:	48 8d 05 ee d2 23 00 	lea    0x23d2ee(%rip),%rax        # 247218 <__JCR_END__+0x1d50>
    9f2a:	48 89 44 24 38       	mov    %rax,0x38(%rsp)
    9f2f:	48 c7 44 24 40 02 00 	movq   $0x2,0x40(%rsp)
    9f36:	00 00 
    9f38:	48 c7 44 24 48 00 00 	movq   $0x0,0x48(%rsp)
    9f3f:	00 00 
    9f41:	48 8d 44 24 18       	lea    0x18(%rsp),%rax
    9f46:	48 89 44 24 58       	mov    %rax,0x58(%rsp)
    9f4b:	48 c7 44 24 60 02 00 	movq   $0x2,0x60(%rsp)
    9f52:	00 00 
    9f54:	48 8d 7c 24 38       	lea    0x38(%rsp),%rdi
    9f59:	48 89 d6             	mov    %rdx,%rsi
    9f5c:	ff 15 f6 dd 23 00    	callq  *0x23ddf6(%rip)        # 247d58 <_GLOBAL_OFFSET_TABLE_+0x3b0>
    9f62:	0f 0b                	ud2    
    9f64:	66 2e 0f 1f 84 00 00 	nopw   %cs:0x0(%rax,%rax,1)
    9f6b:	00 00 00 
    9f6e:	66 90                	xchg   %ax,%ax

0000000000009f70 <_ZN4core9panicking9panic_fmt17hca6330e3e14086b4E>:
    9f70:	48 83 ec 28          	sub    $0x28,%rsp
    9f74:	48 8d 05 3d 2a 03 00 	lea    0x32a3d(%rip),%rax        # 3c9b8 <_ZN4core7unicode12unicode_data11white_space17SHORT_OFFSET_RUNS17h37973815fb97fe0fE+0x298>
    9f7b:	48 89 44 24 08       	mov    %rax,0x8(%rsp)
    9f80:	48 8d 05 21 d2 23 00 	lea    0x23d221(%rip),%rax        # 2471a8 <__JCR_END__+0x1ce0>
    9f87:	48 89 44 24 10       	mov    %rax,0x10(%rsp)
    9f8c:	48 89 7c 24 18       	mov    %rdi,0x18(%rsp)
    9f91:	48 89 74 24 20       	mov    %rsi,0x20(%rsp)
    9f96:	48 8d 7c 24 08       	lea    0x8(%rsp),%rdi
    9f9b:	ff 15 ff db 23 00    	callq  *0x23dbff(%rip)        # 247ba0 <_GLOBAL_OFFSET_TABLE_+0x1f8>
    9fa1:	0f 0b                	ud2    
    9fa3:	66 2e 0f 1f 84 00 00 	nopw   %cs:0x0(%rax,%rax,1)
    9faa:	00 00 00 
    9fad:	0f 1f 00             	nopl   (%rax)

0000000000009fb0 <_ZN4core6result13unwrap_failed17h6160d2b4bfbb0e87E>:
    9fb0:	48 83 ec 78          	sub    $0x78,%rsp
    9fb4:	48 89 7c 24 08       	mov    %rdi,0x8(%rsp)
    9fb9:	48 89 74 24 10       	mov    %rsi,0x10(%rsp)
    9fbe:	48 89 54 24 18       	mov    %rdx,0x18(%rsp)
    9fc3:	48 89 4c 24 20       	mov    %rcx,0x20(%rsp)
    9fc8:	48 8d 44 24 08       	lea    0x8(%rsp),%rax
    9fcd:	48 89 44 24 28       	mov    %rax,0x28(%rsp)
    9fd2:	48 8d 05 a7 e6 02 00 	lea    0x2e6a7(%rip),%rax        # 38680 <_ZN44_$LT$$RF$T$u20$as$u20$core..fmt..Display$GT$3fmt17h7d3101f0b0fb924fE>
    9fd9:	48 89 44 24 30       	mov    %rax,0x30(%rsp)
    9fde:	48 8d 44 24 18       	lea    0x18(%rsp),%rax
    9fe3:	48 89 44 24 38       	mov    %rax,0x38(%rsp)
    9fe8:	48 8d 05 f1 e3 02 00 	lea    0x2e3f1(%rip),%rax        # 383e0 <_ZN42_$LT$$RF$T$u20$as$u20$core..fmt..Debug$GT$3fmt17h2442a1976134aa70E>
    9fef:	48 89 44 24 40       	mov    %rax,0x40(%rsp)
    9ff4:	48 8d 05 bd d2 23 00 	lea    0x23d2bd(%rip),%rax        # 2472b8 <__JCR_END__+0x1df0>
    9ffb:	48 89 44 24 48       	mov    %rax,0x48(%rsp)
    a000:	48 c7 44 24 50 02 00 	movq   $0x2,0x50(%rsp)
    a007:	00 00 
    a009:	48 c7 44 24 58 00 00 	movq   $0x0,0x58(%rsp)
    a010:	00 00 
    a012:	48 8d 44 24 28       	lea    0x28(%rsp),%rax
    a017:	48 89 44 24 68       	mov    %rax,0x68(%rsp)
    a01c:	48 c7 44 24 70 02 00 	movq   $0x2,0x70(%rsp)
    a023:	00 00 
    a025:	48 8d 7c 24 48       	lea    0x48(%rsp),%rdi
    a02a:	4c 89 c6             	mov    %r8,%rsi
    a02d:	ff 15 25 dd 23 00    	callq  *0x23dd25(%rip)        # 247d58 <_GLOBAL_OFFSET_TABLE_+0x3b0>
    a033:	0f 0b                	ud2    
    a035:	66 2e 0f 1f 84 00 00 	nopw   %cs:0x0(%rax,%rax,1)
    a03c:	00 00 00 
    a03f:	90                   	nop

000000000000a040 <_ZN4core5slice5index26slice_start_index_len_fail17h920627ceca7e2da0E>:
    a040:	48 83 ec 68          	sub    $0x68,%rsp
    a044:	48 89 7c 24 08       	mov    %rdi,0x8(%rsp)
    a049:	48 89 74 24 10       	mov    %rsi,0x10(%rsp)
    a04e:	48 8d 44 24 08       	lea    0x8(%rsp),%rax
    a053:	48 89 44 24 18       	mov    %rax,0x18(%rsp)
    a058:	48 8d 05 91 e1 02 00 	lea    0x2e191(%rip),%rax        # 381f0 <_ZN4core3fmt3num3imp52_$LT$impl$u20$core..fmt..Display$u20$for$u20$u64$GT$3fmt17hbb166475dc51a6fcE>
    a05f:	48 89 44 24 20       	mov    %rax,0x20(%rsp)
    a064:	48 8d 4c 24 10       	lea    0x10(%rsp),%rcx
    a069:	48 89 4c 24 28       	mov    %rcx,0x28(%rsp)
    a06e:	48 89 44 24 30       	mov    %rax,0x30(%rsp)
    a073:	48 8d 05 6e d3 23 00 	lea    0x23d36e(%rip),%rax        # 2473e8 <__JCR_END__+0x1f20>
    a07a:	48 89 44 24 38       	mov    %rax,0x38(%rsp)
    a07f:	48 c7 44 24 40 02 00 	movq   $0x2,0x40(%rsp)
    a086:	00 00 
    a088:	48 c7 44 24 48 00 00 	movq   $0x0,0x48(%rsp)
    a08f:	00 00 
    a091:	48 8d 44 24 18       	lea    0x18(%rsp),%rax
    a096:	48 89 44 24 58       	mov    %rax,0x58(%rsp)
    a09b:	48 c7 44 24 60 02 00 	movq   $0x2,0x60(%rsp)
    a0a2:	00 00 
    a0a4:	48 8d 7c 24 38       	lea    0x38(%rsp),%rdi
    a0a9:	48 89 d6             	mov    %rdx,%rsi
    a0ac:	ff 15 a6 dc 23 00    	callq  *0x23dca6(%rip)        # 247d58 <_GLOBAL_OFFSET_TABLE_+0x3b0>
    a0b2:	0f 0b                	ud2    
    a0b4:	66 2e 0f 1f 84 00 00 	nopw   %cs:0x0(%rax,%rax,1)
    a0bb:	00 00 00 
    a0be:	66 90                	xchg   %ax,%ax

000000000000a0c0 <_ZN4core5slice5index24slice_end_index_len_fail17h81f6423c21128476E>:
    a0c0:	48 83 ec 68          	sub    $0x68,%rsp
    a0c4:	48 89 7c 24 08       	mov    %rdi,0x8(%rsp)
    a0c9:	48 89 74 24 10       	mov    %rsi,0x10(%rsp)
    a0ce:	48 8d 44 24 08       	lea    0x8(%rsp),%rax
    a0d3:	48 89 44 24 18       	mov    %rax,0x18(%rsp)
    a0d8:	48 8d 05 11 e1 02 00 	lea    0x2e111(%rip),%rax        # 381f0 <_ZN4core3fmt3num3imp52_$LT$impl$u20$core..fmt..Display$u20$for$u20$u64$GT$3fmt17hbb166475dc51a6fcE>
    a0df:	48 89 44 24 20       	mov    %rax,0x20(%rsp)
    a0e4:	48 8d 4c 24 10       	lea    0x10(%rsp),%rcx
    a0e9:	48 89 4c 24 28       	mov    %rcx,0x28(%rsp)
    a0ee:	48 89 44 24 30       	mov    %rax,0x30(%rsp)
    a0f3:	48 8d 05 0e d3 23 00 	lea    0x23d30e(%rip),%rax        # 247408 <__JCR_END__+0x1f40>
    a0fa:	48 89 44 24 38       	mov    %rax,0x38(%rsp)
    a0ff:	48 c7 44 24 40 02 00 	movq   $0x2,0x40(%rsp)
    a106:	00 00 
    a108:	48 c7 44 24 48 00 00 	movq   $0x0,0x48(%rsp)
    a10f:	00 00 
    a111:	48 8d 44 24 18       	lea    0x18(%rsp),%rax
    a116:	48 89 44 24 58       	mov    %rax,0x58(%rsp)
    a11b:	48 c7 44 24 60 02 00 	movq   $0x2,0x60(%rsp)
    a122:	00 00 
    a124:	48 8d 7c 24 38       	lea    0x38(%rsp),%rdi
    a129:	48 89 d6             	mov    %rdx,%rsi
    a12c:	ff 15 26 dc 23 00    	callq  *0x23dc26(%rip)        # 247d58 <_GLOBAL_OFFSET_TABLE_+0x3b0>
    a132:	0f 0b                	ud2    
    a134:	66 2e 0f 1f 84 00 00 	nopw   %cs:0x0(%rax,%rax,1)
    a13b:	00 00 00 
    a13e:	66 90                	xchg   %ax,%ax

000000000000a140 <_ZN4core5slice5index22slice_index_order_fail17h2de102dc102977e7E>:
    a140:	48 83 ec 68          	sub    $0x68,%rsp
    a144:	48 89 7c 24 08       	mov    %rdi,0x8(%rsp)
    a149:	48 89 74 24 10       	mov    %rsi,0x10(%rsp)
    a14e:	48 8d 44 24 08       	lea    0x8(%rsp),%rax
    a153:	48 89 44 24 18       	mov    %rax,0x18(%rsp)
    a158:	48 8d 05 91 e0 02 00 	lea    0x2e091(%rip),%rax        # 381f0 <_ZN4core3fmt3num3imp52_$LT$impl$u20$core..fmt..Display$u20$for$u20$u64$GT$3fmt17hbb166475dc51a6fcE>
    a15f:	48 89 44 24 20       	mov    %rax,0x20(%rsp)
    a164:	48 8d 4c 24 10       	lea    0x10(%rsp),%rcx
    a169:	48 89 4c 24 28       	mov    %rcx,0x28(%rsp)
    a16e:	48 89 44 24 30       	mov    %rax,0x30(%rsp)
    a173:	48 8d 05 ae d2 23 00 	lea    0x23d2ae(%rip),%rax        # 247428 <__JCR_END__+0x1f60>
    a17a:	48 89 44 24 38       	mov    %rax,0x38(%rsp)
    a17f:	48 c7 44 24 40 02 00 	movq   $0x2,0x40(%rsp)
    a186:	00 00 
    a188:	48 c7 44 24 48 00 00 	movq   $0x0,0x48(%rsp)
    a18f:	00 00 
    a191:	48 8d 44 24 18       	lea    0x18(%rsp),%rax
    a196:	48 89 44 24 58       	mov    %rax,0x58(%rsp)
    a19b:	48 c7 44 24 60 02 00 	movq   $0x2,0x60(%rsp)
    a1a2:	00 00 
    a1a4:	48 8d 7c 24 38       	lea    0x38(%rsp),%rdi
    a1a9:	48 89 d6             	mov    %rdx,%rsi
    a1ac:	ff 15 a6 db 23 00    	callq  *0x23dba6(%rip)        # 247d58 <_GLOBAL_OFFSET_TABLE_+0x3b0>
    a1b2:	0f 0b                	ud2    
    a1b4:	66 2e 0f 1f 84 00 00 	nopw   %cs:0x0(%rax,%rax,1)
    a1bb:	00 00 00 
    a1be:	66 90                	xchg   %ax,%ax

000000000000a1c0 <_ZN4core5slice29_$LT$impl$u20$$u5b$T$u5d$$GT$15copy_from_slice17len_mismatch_fail17h52fe81156d22bea6E>:
    a1c0:	48 83 ec 68          	sub    $0x68,%rsp
    a1c4:	48 89 7c 24 08       	mov    %rdi,0x8(%rsp)
    a1c9:	48 89 74 24 10       	mov    %rsi,0x10(%rsp)
    a1ce:	48 8d 44 24 10       	lea    0x10(%rsp),%rax
    a1d3:	48 89 44 24 18       	mov    %rax,0x18(%rsp)
    a1d8:	48 8d 05 11 e0 02 00 	lea    0x2e011(%rip),%rax        # 381f0 <_ZN4core3fmt3num3imp52_$LT$impl$u20$core..fmt..Display$u20$for$u20$u64$GT$3fmt17hbb166475dc51a6fcE>
    a1df:	48 89 44 24 20       	mov    %rax,0x20(%rsp)
    a1e4:	48 8d 4c 24 08       	lea    0x8(%rsp),%rcx
    a1e9:	48 89 4c 24 28       	mov    %rcx,0x28(%rsp)
    a1ee:	48 89 44 24 30       	mov    %rax,0x30(%rsp)
    a1f3:	48 8d 05 4e d2 23 00 	lea    0x23d24e(%rip),%rax        # 247448 <__JCR_END__+0x1f80>
    a1fa:	48 89 44 24 38       	mov    %rax,0x38(%rsp)
    a1ff:	48 c7 44 24 40 03 00 	movq   $0x3,0x40(%rsp)
    a206:	00 00 
    a208:	48 c7 44 24 48 00 00 	movq   $0x0,0x48(%rsp)
    a20f:	00 00 
    a211:	48 8d 44 24 18       	lea    0x18(%rsp),%rax
    a216:	48 89 44 24 58       	mov    %rax,0x58(%rsp)
    a21b:	48 c7 44 24 60 02 00 	movq   $0x2,0x60(%rsp)
    a222:	00 00 
    a224:	48 8d 7c 24 38       	lea    0x38(%rsp),%rdi
    a229:	48 89 d6             	mov    %rdx,%rsi
    a22c:	ff 15 26 db 23 00    	callq  *0x23db26(%rip)        # 247d58 <_GLOBAL_OFFSET_TABLE_+0x3b0>
    a232:	0f 0b                	ud2    
    a234:	66 2e 0f 1f 84 00 00 	nopw   %cs:0x0(%rax,%rax,1)
    a23b:	00 00 00 
    a23e:	66 90                	xchg   %ax,%ax

000000000000a240 <_ZN4core3str6traits23str_index_overflow_fail17h2a6836ca4d331429E>:
    a240:	50                   	push   %rax
    a241:	48 89 fa             	mov    %rdi,%rdx
    a244:	48 8d 3d 64 2a 03 00 	lea    0x32a64(%rip),%rdi        # 3ccaf <_ZN4core7unicode12unicode_data11white_space17SHORT_OFFSET_RUNS17h37973815fb97fe0fE+0x58f>
    a24b:	be 2a 00 00 00       	mov    $0x2a,%esi
    a250:	ff 15 4a dc 23 00    	callq  *0x23dc4a(%rip)        # 247ea0 <_GLOBAL_OFFSET_TABLE_+0x4f8>
    a256:	0f 0b                	ud2    
    a258:	0f 1f 84 00 00 00 00 	nopl   0x0(%rax,%rax,1)
    a25f:	00 

000000000000a260 <_ZN4core3str16slice_error_fail17h21f77e47e103624aE>:
    a260:	53                   	push   %rbx
    a261:	48 81 ec d0 00 00 00 	sub    $0xd0,%rsp
    a268:	48 89 94 24 c0 00 00 	mov    %rdx,0xc0(%rsp)
    a26f:	00 
    a270:	48 89 8c 24 c8 00 00 	mov    %rcx,0xc8(%rsp)
    a277:	00 
    a278:	48 81 fe 01 01 00 00 	cmp    $0x101,%rsi
    a27f:	73 2b                	jae    a2ac <_ZN4core3str16slice_error_fail17h21f77e47e103624aE+0x4c>
    a281:	48 89 7c 24 08       	mov    %rdi,0x8(%rsp)
    a286:	48 89 74 24 10       	mov    %rsi,0x10(%rsp)
    a28b:	48 8d 05 26 27 03 00 	lea    0x32726(%rip),%rax        # 3c9b8 <_ZN4core7unicode12unicode_data11white_space17SHORT_OFFSET_RUNS17h37973815fb97fe0fE+0x298>
    a292:	48 89 44 24 18       	mov    %rax,0x18(%rsp)
    a297:	31 c0                	xor    %eax,%eax
    a299:	48 89 44 24 20       	mov    %rax,0x20(%rsp)
    a29e:	48 39 f2             	cmp    %rsi,%rdx
    a2a1:	0f 86 ab 00 00 00    	jbe    a352 <_ZN4core3str16slice_error_fail17h21f77e47e103624aE+0xf2>
    a2a7:	e9 55 01 00 00       	jmpq   a401 <_ZN4core3str16slice_error_fail17h21f77e47e103624aE+0x1a1>
    a2ac:	49 89 f2             	mov    %rsi,%r10
    a2af:	49 f7 da             	neg    %r10
    a2b2:	bb 00 01 00 00       	mov    $0x100,%ebx
    a2b7:	45 31 c9             	xor    %r9d,%r9d
    a2ba:	eb 11                	jmp    a2cd <_ZN4core3str16slice_error_fail17h21f77e47e103624aE+0x6d>
    a2bc:	0f 1f 40 00          	nopl   0x0(%rax)
    a2c0:	80 7c 1f ff bf       	cmpb   $0xbf,-0x1(%rdi,%rbx,1)
    a2c5:	7f 44                	jg     a30b <_ZN4core3str16slice_error_fail17h21f77e47e103624aE+0xab>
    a2c7:	48 83 c3 fe          	add    $0xfffffffffffffffe,%rbx
    a2cb:	74 5c                	je     a329 <_ZN4core3str16slice_error_fail17h21f77e47e103624aE+0xc9>
    a2cd:	48 39 f3             	cmp    %rsi,%rbx
    a2d0:	73 0e                	jae    a2e0 <_ZN4core3str16slice_error_fail17h21f77e47e103624aE+0x80>
    a2d2:	80 3c 1f bf          	cmpb   $0xbf,(%rdi,%rbx,1)
    a2d6:	7e 10                	jle    a2e8 <_ZN4core3str16slice_error_fail17h21f77e47e103624aE+0x88>
    a2d8:	eb 2e                	jmp    a308 <_ZN4core3str16slice_error_fail17h21f77e47e103624aE+0xa8>
    a2da:	66 0f 1f 44 00 00    	nopw   0x0(%rax,%rax,1)
    a2e0:	4c 89 d0             	mov    %r10,%rax
    a2e3:	48 01 d8             	add    %rbx,%rax
    a2e6:	74 1b                	je     a303 <_ZN4core3str16slice_error_fail17h21f77e47e103624aE+0xa3>
    a2e8:	4c 8d 5b ff          	lea    -0x1(%rbx),%r11
    a2ec:	49 39 f3             	cmp    %rsi,%r11
    a2ef:	72 cf                	jb     a2c0 <_ZN4core3str16slice_error_fail17h21f77e47e103624aE+0x60>
    a2f1:	49 8d 04 1a          	lea    (%r10,%rbx,1),%rax
    a2f5:	48 05 ff 00 00 00    	add    $0xff,%rax
    a2fb:	48 3d 00 01 00 00    	cmp    $0x100,%rax
    a301:	75 c4                	jne    a2c7 <_ZN4core3str16slice_error_fail17h21f77e47e103624aE+0x67>
    a303:	49 89 f1             	mov    %rsi,%r9
    a306:	eb 21                	jmp    a329 <_ZN4core3str16slice_error_fail17h21f77e47e103624aE+0xc9>
    a308:	49 89 db             	mov    %rbx,%r11
    a30b:	49 39 f3             	cmp    %rsi,%r11
    a30e:	73 10                	jae    a320 <_ZN4core3str16slice_error_fail17h21f77e47e103624aE+0xc0>
    a310:	42 80 3c 1f bf       	cmpb   $0xbf,(%rdi,%r11,1)
    a315:	0f 8e 94 01 00 00    	jle    a4af <_ZN4core3str16slice_error_fail17h21f77e47e103624aE+0x24f>
    a31b:	4d 89 d9             	mov    %r11,%r9
    a31e:	eb 09                	jmp    a329 <_ZN4core3str16slice_error_fail17h21f77e47e103624aE+0xc9>
    a320:	49 89 f1             	mov    %rsi,%r9
    a323:	0f 85 86 01 00 00    	jne    a4af <_ZN4core3str16slice_error_fail17h21f77e47e103624aE+0x24f>
    a329:	48 89 7c 24 08       	mov    %rdi,0x8(%rsp)
    a32e:	4c 89 4c 24 10       	mov    %r9,0x10(%rsp)
    a333:	48 8d 05 21 2b 03 00 	lea    0x32b21(%rip),%rax        # 3ce5b <_ZN4core3str11validations15UTF8_CHAR_WIDTH17hcc9865bc4c551dd8E+0x15f>
    a33a:	48 89 44 24 18       	mov    %rax,0x18(%rsp)
    a33f:	b8 05 00 00 00       	mov    $0x5,%eax
    a344:	48 89 44 24 20       	mov    %rax,0x20(%rsp)
    a349:	48 39 f2             	cmp    %rsi,%rdx
    a34c:	0f 87 af 00 00 00    	ja     a401 <_ZN4core3str16slice_error_fail17h21f77e47e103624aE+0x1a1>
    a352:	48 39 f1             	cmp    %rsi,%rcx
    a355:	0f 87 a6 00 00 00    	ja     a401 <_ZN4core3str16slice_error_fail17h21f77e47e103624aE+0x1a1>
    a35b:	48 39 ca             	cmp    %rcx,%rdx
    a35e:	0f 86 31 01 00 00    	jbe    a495 <_ZN4core3str16slice_error_fail17h21f77e47e103624aE+0x235>
    a364:	48 8d 84 24 c0 00 00 	lea    0xc0(%rsp),%rax
    a36b:	00 
    a36c:	48 89 44 24 60       	mov    %rax,0x60(%rsp)
    a371:	48 8d 05 78 de 02 00 	lea    0x2de78(%rip),%rax        # 381f0 <_ZN4core3fmt3num3imp52_$LT$impl$u20$core..fmt..Display$u20$for$u20$u64$GT$3fmt17hbb166475dc51a6fcE>
    a378:	48 89 44 24 68       	mov    %rax,0x68(%rsp)
    a37d:	48 8d 8c 24 c8 00 00 	lea    0xc8(%rsp),%rcx
    a384:	00 
    a385:	48 89 4c 24 70       	mov    %rcx,0x70(%rsp)
    a38a:	48 89 44 24 78       	mov    %rax,0x78(%rsp)
    a38f:	48 8d 44 24 08       	lea    0x8(%rsp),%rax
    a394:	48 89 84 24 80 00 00 	mov    %rax,0x80(%rsp)
    a39b:	00 
    a39c:	48 8d 05 dd e2 02 00 	lea    0x2e2dd(%rip),%rax        # 38680 <_ZN44_$LT$$RF$T$u20$as$u20$core..fmt..Display$GT$3fmt17h7d3101f0b0fb924fE>
    a3a3:	48 89 84 24 88 00 00 	mov    %rax,0x88(%rsp)
    a3aa:	00 
    a3ab:	48 8d 4c 24 18       	lea    0x18(%rsp),%rcx
    a3b0:	48 89 8c 24 90 00 00 	mov    %rcx,0x90(%rsp)
    a3b7:	00 
    a3b8:	48 89 84 24 98 00 00 	mov    %rax,0x98(%rsp)
    a3bf:	00 
    a3c0:	48 8d 05 49 d2 23 00 	lea    0x23d249(%rip),%rax        # 247610 <__JCR_END__+0x2148>
    a3c7:	48 89 44 24 30       	mov    %rax,0x30(%rsp)
    a3cc:	48 c7 44 24 38 04 00 	movq   $0x4,0x38(%rsp)
    a3d3:	00 00 
    a3d5:	48 c7 44 24 40 00 00 	movq   $0x0,0x40(%rsp)
    a3dc:	00 00 
    a3de:	48 8d 44 24 60       	lea    0x60(%rsp),%rax
    a3e3:	48 89 44 24 50       	mov    %rax,0x50(%rsp)
    a3e8:	48 c7 44 24 58 04 00 	movq   $0x4,0x58(%rsp)
    a3ef:	00 00 
    a3f1:	48 8d 7c 24 30       	lea    0x30(%rsp),%rdi
    a3f6:	4c 89 c6             	mov    %r8,%rsi
    a3f9:	ff 15 59 d9 23 00    	callq  *0x23d959(%rip)        # 247d58 <_GLOBAL_OFFSET_TABLE_+0x3b0>
    a3ff:	0f 0b                	ud2    
    a401:	48 39 f2             	cmp    %rsi,%rdx
    a404:	48 0f 47 ca          	cmova  %rdx,%rcx
    a408:	48 89 8c 24 b0 00 00 	mov    %rcx,0xb0(%rsp)
    a40f:	00 
    a410:	48 8d 84 24 b0 00 00 	lea    0xb0(%rsp),%rax
    a417:	00 
    a418:	48 89 44 24 60       	mov    %rax,0x60(%rsp)
    a41d:	48 8d 05 cc dd 02 00 	lea    0x2ddcc(%rip),%rax        # 381f0 <_ZN4core3fmt3num3imp52_$LT$impl$u20$core..fmt..Display$u20$for$u20$u64$GT$3fmt17hbb166475dc51a6fcE>
    a424:	48 89 44 24 68       	mov    %rax,0x68(%rsp)
    a429:	48 8d 44 24 08       	lea    0x8(%rsp),%rax
    a42e:	48 89 44 24 70       	mov    %rax,0x70(%rsp)
    a433:	48 8d 05 46 e2 02 00 	lea    0x2e246(%rip),%rax        # 38680 <_ZN44_$LT$$RF$T$u20$as$u20$core..fmt..Display$GT$3fmt17h7d3101f0b0fb924fE>
    a43a:	48 89 44 24 78       	mov    %rax,0x78(%rsp)
    a43f:	48 8d 4c 24 18       	lea    0x18(%rsp),%rcx
    a444:	48 89 8c 24 80 00 00 	mov    %rcx,0x80(%rsp)
    a44b:	00 
    a44c:	48 89 84 24 88 00 00 	mov    %rax,0x88(%rsp)
    a453:	00 
    a454:	48 8d 05 85 d1 23 00 	lea    0x23d185(%rip),%rax        # 2475e0 <__JCR_END__+0x2118>
    a45b:	48 89 44 24 30       	mov    %rax,0x30(%rsp)
    a460:	48 c7 44 24 38 03 00 	movq   $0x3,0x38(%rsp)
    a467:	00 00 
    a469:	48 c7 44 24 40 00 00 	movq   $0x0,0x40(%rsp)
    a470:	00 00 
    a472:	48 8d 44 24 60       	lea    0x60(%rsp),%rax
    a477:	48 89 44 24 50       	mov    %rax,0x50(%rsp)
    a47c:	48 c7 44 24 58 03 00 	movq   $0x3,0x58(%rsp)
    a483:	00 00 
    a485:	48 8d 7c 24 30       	lea    0x30(%rsp),%rdi
    a48a:	4c 89 c6             	mov    %r8,%rsi
    a48d:	ff 15 c5 d8 23 00    	callq  *0x23d8c5(%rip)        # 247d58 <_GLOBAL_OFFSET_TABLE_+0x3b0>
    a493:	0f 0b                	ud2    
    a495:	48 85 d2             	test   %rdx,%rdx
    a498:	74 2b                	je     a4c5 <_ZN4core3str16slice_error_fail17h21f77e47e103624aE+0x265>
    a49a:	48 39 d6             	cmp    %rdx,%rsi
    a49d:	76 24                	jbe    a4c3 <_ZN4core3str16slice_error_fail17h21f77e47e103624aE+0x263>
    a49f:	80 3c 17 bf          	cmpb   $0xbf,(%rdi,%rdx,1)
    a4a3:	7f 20                	jg     a4c5 <_ZN4core3str16slice_error_fail17h21f77e47e103624aE+0x265>
    a4a5:	48 89 54 24 28       	mov    %rdx,0x28(%rsp)
    a4aa:	48 89 d1             	mov    %rdx,%rcx
    a4ad:	eb 4c                	jmp    a4fb <_ZN4core3str16slice_error_fail17h21f77e47e103624aE+0x29b>
    a4af:	4c 8d 05 c2 cf 23 00 	lea    0x23cfc2(%rip),%r8        # 247478 <__JCR_END__+0x1fb0>
    a4b6:	31 d2                	xor    %edx,%edx
    a4b8:	4c 89 d9             	mov    %r11,%rcx
    a4bb:	ff 15 c7 d9 23 00    	callq  *0x23d9c7(%rip)        # 247e88 <_GLOBAL_OFFSET_TABLE_+0x4e0>
    a4c1:	0f 0b                	ud2    
    a4c3:	75 e0                	jne    a4a5 <_ZN4core3str16slice_error_fail17h21f77e47e103624aE+0x245>
    a4c5:	48 89 4c 24 28       	mov    %rcx,0x28(%rsp)
    a4ca:	48 85 c9             	test   %rcx,%rcx
    a4cd:	75 2c                	jne    a4fb <_ZN4core3str16slice_error_fail17h21f77e47e103624aE+0x29b>
    a4cf:	31 c9                	xor    %ecx,%ecx
    a4d1:	48 39 f1             	cmp    %rsi,%rcx
    a4d4:	75 44                	jne    a51a <_ZN4core3str16slice_error_fail17h21f77e47e103624aE+0x2ba>
    a4d6:	48 8d 3d 4e 25 03 00 	lea    0x3254e(%rip),%rdi        # 3ca2b <_ZN4core7unicode12unicode_data11white_space17SHORT_OFFSET_RUNS17h37973815fb97fe0fE+0x30b>
    a4dd:	be 2b 00 00 00       	mov    $0x2b,%esi
    a4e2:	4c 89 c2             	mov    %r8,%rdx
    a4e5:	ff 15 b5 d9 23 00    	callq  *0x23d9b5(%rip)        # 247ea0 <_GLOBAL_OFFSET_TABLE_+0x4f8>
    a4eb:	0f 0b                	ud2    
    a4ed:	0f 1f 00             	nopl   (%rax)
    a4f0:	48 39 ce             	cmp    %rcx,%rsi
    a4f3:	74 e1                	je     a4d6 <_ZN4core3str16slice_error_fail17h21f77e47e103624aE+0x276>
    a4f5:	48 83 c1 ff          	add    $0xffffffffffffffff,%rcx
    a4f9:	74 d4                	je     a4cf <_ZN4core3str16slice_error_fail17h21f77e47e103624aE+0x26f>
    a4fb:	48 39 f1             	cmp    %rsi,%rcx
    a4fe:	73 f0                	jae    a4f0 <_ZN4core3str16slice_error_fail17h21f77e47e103624aE+0x290>
    a500:	80 3c 0f c0          	cmpb   $0xc0,(%rdi,%rcx,1)
    a504:	7c ef                	jl     a4f5 <_ZN4core3str16slice_error_fail17h21f77e47e103624aE+0x295>
    a506:	48 39 f1             	cmp    %rsi,%rcx
    a509:	0f 83 a0 00 00 00    	jae    a5af <_ZN4core3str16slice_error_fail17h21f77e47e103624aE+0x34f>
    a50f:	80 3c 0f bf          	cmpb   $0xbf,(%rdi,%rcx,1)
    a513:	7f bc                	jg     a4d1 <_ZN4core3str16slice_error_fail17h21f77e47e103624aE+0x271>
    a515:	e9 9e 00 00 00       	jmpq   a5b8 <_ZN4core3str16slice_error_fail17h21f77e47e103624aE+0x358>
    a51a:	48 8d 04 0f          	lea    (%rdi,%rcx,1),%rax
    a51e:	0f b6 10             	movzbl (%rax),%edx
    a521:	84 d2                	test   %dl,%dl
    a523:	78 0e                	js     a533 <_ZN4core3str16slice_error_fail17h21f77e47e103624aE+0x2d3>
    a525:	89 54 24 04          	mov    %edx,0x4(%rsp)
    a529:	b8 01 00 00 00       	mov    $0x1,%eax
    a52e:	e9 c5 00 00 00       	jmpq   a5f8 <_ZN4core3str16slice_error_fail17h21f77e47e103624aE+0x398>
    a533:	48 01 f7             	add    %rsi,%rdi
    a536:	48 8d 58 01          	lea    0x1(%rax),%rbx
    a53a:	31 f6                	xor    %esi,%esi
    a53c:	49 89 f9             	mov    %rdi,%r9
    a53f:	48 39 fb             	cmp    %rdi,%rbx
    a542:	74 0e                	je     a552 <_ZN4core3str16slice_error_fail17h21f77e47e103624aE+0x2f2>
    a544:	0f b6 70 01          	movzbl 0x1(%rax),%esi
    a548:	48 83 c0 02          	add    $0x2,%rax
    a54c:	83 e6 3f             	and    $0x3f,%esi
    a54f:	49 89 c1             	mov    %rax,%r9
    a552:	89 d0                	mov    %edx,%eax
    a554:	83 e0 1f             	and    $0x1f,%eax
    a557:	80 fa df             	cmp    $0xdf,%dl
    a55a:	76 4e                	jbe    a5aa <_ZN4core3str16slice_error_fail17h21f77e47e103624aE+0x34a>
    a55c:	45 31 db             	xor    %r11d,%r11d
    a55f:	49 89 fa             	mov    %rdi,%r10
    a562:	49 39 f9             	cmp    %rdi,%r9
    a565:	74 0f                	je     a576 <_ZN4core3str16slice_error_fail17h21f77e47e103624aE+0x316>
    a567:	45 0f b6 19          	movzbl (%r9),%r11d
    a56b:	49 83 c1 01          	add    $0x1,%r9
    a56f:	41 83 e3 3f          	and    $0x3f,%r11d
    a573:	4d 89 ca             	mov    %r9,%r10
    a576:	c1 e6 06             	shl    $0x6,%esi
    a579:	44 09 de             	or     %r11d,%esi
    a57c:	80 fa f0             	cmp    $0xf0,%dl
    a57f:	72 45                	jb     a5c6 <_ZN4core3str16slice_error_fail17h21f77e47e103624aE+0x366>
    a581:	31 d2                	xor    %edx,%edx
    a583:	49 39 fa             	cmp    %rdi,%r10
    a586:	74 07                	je     a58f <_ZN4core3str16slice_error_fail17h21f77e47e103624aE+0x32f>
    a588:	41 0f b6 12          	movzbl (%r10),%edx
    a58c:	83 e2 3f             	and    $0x3f,%edx
    a58f:	83 e0 07             	and    $0x7,%eax
    a592:	c1 e0 12             	shl    $0x12,%eax
    a595:	c1 e6 06             	shl    $0x6,%esi
    a598:	09 c6                	or     %eax,%esi
    a59a:	09 d6                	or     %edx,%esi
    a59c:	81 fe 00 00 11 00    	cmp    $0x110000,%esi
    a5a2:	0f 84 2e ff ff ff    	je     a4d6 <_ZN4core3str16slice_error_fail17h21f77e47e103624aE+0x276>
    a5a8:	eb 21                	jmp    a5cb <_ZN4core3str16slice_error_fail17h21f77e47e103624aE+0x36b>
    a5aa:	c1 e0 06             	shl    $0x6,%eax
    a5ad:	eb 1a                	jmp    a5c9 <_ZN4core3str16slice_error_fail17h21f77e47e103624aE+0x369>
    a5af:	48 39 ce             	cmp    %rcx,%rsi
    a5b2:	0f 84 1e ff ff ff    	je     a4d6 <_ZN4core3str16slice_error_fail17h21f77e47e103624aE+0x276>
    a5b8:	48 89 ca             	mov    %rcx,%rdx
    a5bb:	48 89 f1             	mov    %rsi,%rcx
    a5be:	ff 15 c4 d8 23 00    	callq  *0x23d8c4(%rip)        # 247e88 <_GLOBAL_OFFSET_TABLE_+0x4e0>
    a5c4:	0f 0b                	ud2    
    a5c6:	c1 e0 0c             	shl    $0xc,%eax
    a5c9:	09 c6                	or     %eax,%esi
    a5cb:	89 74 24 04          	mov    %esi,0x4(%rsp)
    a5cf:	b8 01 00 00 00       	mov    $0x1,%eax
    a5d4:	81 fe 80 00 00 00    	cmp    $0x80,%esi
    a5da:	72 1c                	jb     a5f8 <_ZN4core3str16slice_error_fail17h21f77e47e103624aE+0x398>
    a5dc:	b8 02 00 00 00       	mov    $0x2,%eax
    a5e1:	81 fe 00 08 00 00    	cmp    $0x800,%esi
    a5e7:	72 0f                	jb     a5f8 <_ZN4core3str16slice_error_fail17h21f77e47e103624aE+0x398>
    a5e9:	81 fe 00 00 01 00    	cmp    $0x10000,%esi
    a5ef:	b8 04 00 00 00       	mov    $0x4,%eax
    a5f4:	48 83 d8 00          	sbb    $0x0,%rax
    a5f8:	48 01 c8             	add    %rcx,%rax
    a5fb:	48 89 8c 24 b0 00 00 	mov    %rcx,0xb0(%rsp)
    a602:	00 
    a603:	48 89 84 24 b8 00 00 	mov    %rax,0xb8(%rsp)
    a60a:	00 
    a60b:	48 8d 44 24 28       	lea    0x28(%rsp),%rax
    a610:	48 89 44 24 60       	mov    %rax,0x60(%rsp)
    a615:	48 8d 05 d4 db 02 00 	lea    0x2dbd4(%rip),%rax        # 381f0 <_ZN4core3fmt3num3imp52_$LT$impl$u20$core..fmt..Display$u20$for$u20$u64$GT$3fmt17hbb166475dc51a6fcE>
    a61c:	48 89 44 24 68       	mov    %rax,0x68(%rsp)
    a621:	48 8d 44 24 04       	lea    0x4(%rsp),%rax
    a626:	48 89 44 24 70       	mov    %rax,0x70(%rsp)
    a62b:	48 8d 05 2e b8 02 00 	lea    0x2b82e(%rip),%rax        # 35e60 <_ZN41_$LT$char$u20$as$u20$core..fmt..Debug$GT$3fmt17hea8a3c67791ed818E>
    a632:	48 89 44 24 78       	mov    %rax,0x78(%rsp)
    a637:	48 8d 84 24 b0 00 00 	lea    0xb0(%rsp),%rax
    a63e:	00 
    a63f:	48 89 84 24 80 00 00 	mov    %rax,0x80(%rsp)
    a646:	00 
    a647:	48 8d 05 82 93 02 00 	lea    0x29382(%rip),%rax        # 339d0 <_ZN71_$LT$core..ops..range..Range$LT$Idx$GT$$u20$as$u20$core..fmt..Debug$GT$3fmt17h078717d5166bab36E>
    a64e:	48 89 84 24 88 00 00 	mov    %rax,0x88(%rsp)
    a655:	00 
    a656:	48 8d 44 24 08       	lea    0x8(%rsp),%rax
    a65b:	48 89 84 24 90 00 00 	mov    %rax,0x90(%rsp)
    a662:	00 
    a663:	48 8d 05 16 e0 02 00 	lea    0x2e016(%rip),%rax        # 38680 <_ZN44_$LT$$RF$T$u20$as$u20$core..fmt..Display$GT$3fmt17h7d3101f0b0fb924fE>
    a66a:	48 89 84 24 98 00 00 	mov    %rax,0x98(%rsp)
    a671:	00 
    a672:	48 8d 4c 24 18       	lea    0x18(%rsp),%rcx
    a677:	48 89 8c 24 a0 00 00 	mov    %rcx,0xa0(%rsp)
    a67e:	00 
    a67f:	48 89 84 24 a8 00 00 	mov    %rax,0xa8(%rsp)
    a686:	00 
    a687:	48 8d 05 c2 cf 23 00 	lea    0x23cfc2(%rip),%rax        # 247650 <__JCR_END__+0x2188>
    a68e:	48 89 44 24 30       	mov    %rax,0x30(%rsp)
    a693:	48 c7 44 24 38 05 00 	movq   $0x5,0x38(%rsp)
    a69a:	00 00 
    a69c:	48 c7 44 24 40 00 00 	movq   $0x0,0x40(%rsp)
    a6a3:	00 00 
    a6a5:	48 8d 44 24 60       	lea    0x60(%rsp),%rax
    a6aa:	48 89 44 24 50       	mov    %rax,0x50(%rsp)
    a6af:	48 c7 44 24 58 05 00 	movq   $0x5,0x58(%rsp)
    a6b6:	00 00 
    a6b8:	48 8d 7c 24 30       	lea    0x30(%rsp),%rdi
    a6bd:	4c 89 c6             	mov    %r8,%rsi
    a6c0:	ff 15 92 d6 23 00    	callq  *0x23d692(%rip)        # 247d58 <_GLOBAL_OFFSET_TABLE_+0x3b0>
    a6c6:	0f 0b                	ud2    
    a6c8:	0f 1f 84 00 00 00 00 	nopl   0x0(%rax,%rax,1)
    a6cf:	00 

000000000000a6d0 <_start>:
    a6d0:	31 ed                	xor    %ebp,%ebp
    a6d2:	49 89 d1             	mov    %rdx,%r9
    a6d5:	5e                   	pop    %rsi
    a6d6:	48 89 e2             	mov    %rsp,%rdx
    a6d9:	48 83 e4 f0          	and    $0xfffffffffffffff0,%rsp
    a6dd:	50                   	push   %rax
    a6de:	54                   	push   %rsp
    a6df:	4c 8d 05 4a e5 02 00 	lea    0x2e54a(%rip),%r8        # 38c30 <__libc_csu_fini>
    a6e6:	48 8d 0d d3 e4 02 00 	lea    0x2e4d3(%rip),%rcx        # 38bc0 <__libc_csu_init>
    a6ed:	48 8d 3d 8c 0f 00 00 	lea    0xf8c(%rip),%rdi        # b680 <main>
    a6f4:	e8 f7 d8 ff ff       	callq  7ff0 <_init+0x38>
    a6f9:	f4                   	hlt    
    a6fa:	66 0f 1f 44 00 00    	nopw   0x0(%rax,%rax,1)

000000000000a700 <deregister_tm_clones>:
    a700:	48 8d 3d 49 d9 23 00 	lea    0x23d949(%rip),%rdi        # 248050 <__TMC_END__>
    a707:	48 8d 05 49 d9 23 00 	lea    0x23d949(%rip),%rax        # 248057 <__TMC_END__+0x7>
    a70e:	55                   	push   %rbp
    a70f:	48 29 f8             	sub    %rdi,%rax
    a712:	48 89 e5             	mov    %rsp,%rbp
    a715:	48 83 f8 0e          	cmp    $0xe,%rax
    a719:	76 15                	jbe    a730 <deregister_tm_clones+0x30>
    a71b:	48 8b 05 36 d3 23 00 	mov    0x23d336(%rip),%rax        # 247a58 <_GLOBAL_OFFSET_TABLE_+0xb0>
    a722:	48 85 c0             	test   %rax,%rax
    a725:	74 09                	je     a730 <deregister_tm_clones+0x30>
    a727:	5d                   	pop    %rbp
    a728:	ff e0                	jmpq   *%rax
    a72a:	66 0f 1f 44 00 00    	nopw   0x0(%rax,%rax,1)
    a730:	5d                   	pop    %rbp
    a731:	c3                   	retq   
    a732:	0f 1f 40 00          	nopl   0x0(%rax)
    a736:	66 2e 0f 1f 84 00 00 	nopw   %cs:0x0(%rax,%rax,1)
    a73d:	00 00 00 

000000000000a740 <register_tm_clones>:
    a740:	48 8d 3d 09 d9 23 00 	lea    0x23d909(%rip),%rdi        # 248050 <__TMC_END__>
    a747:	48 8d 35 02 d9 23 00 	lea    0x23d902(%rip),%rsi        # 248050 <__TMC_END__>
    a74e:	55                   	push   %rbp
    a74f:	48 29 fe             	sub    %rdi,%rsi
    a752:	48 89 e5             	mov    %rsp,%rbp
    a755:	48 c1 fe 03          	sar    $0x3,%rsi
    a759:	48 89 f0             	mov    %rsi,%rax
    a75c:	48 c1 e8 3f          	shr    $0x3f,%rax
    a760:	48 01 c6             	add    %rax,%rsi
    a763:	48 d1 fe             	sar    %rsi
    a766:	74 18                	je     a780 <register_tm_clones+0x40>
    a768:	48 8b 05 b1 d7 23 00 	mov    0x23d7b1(%rip),%rax        # 247f20 <_GLOBAL_OFFSET_TABLE_+0x578>
    a76f:	48 85 c0             	test   %rax,%rax
    a772:	74 0c                	je     a780 <register_tm_clones+0x40>
    a774:	5d                   	pop    %rbp
    a775:	ff e0                	jmpq   *%rax
    a777:	66 0f 1f 84 00 00 00 	nopw   0x0(%rax,%rax,1)
    a77e:	00 00 
    a780:	5d                   	pop    %rbp
    a781:	c3                   	retq   
    a782:	0f 1f 40 00          	nopl   0x0(%rax)
    a786:	66 2e 0f 1f 84 00 00 	nopw   %cs:0x0(%rax,%rax,1)
    a78d:	00 00 00 

000000000000a790 <__do_global_dtors_aux>:
    a790:	80 3d b9 d8 23 00 00 	cmpb   $0x0,0x23d8b9(%rip)        # 248050 <__TMC_END__>
    a797:	75 27                	jne    a7c0 <__do_global_dtors_aux+0x30>
    a799:	48 83 3d 17 d8 23 00 	cmpq   $0x0,0x23d817(%rip)        # 247fb8 <_GLOBAL_OFFSET_TABLE_+0x610>
    a7a0:	00 
    a7a1:	55                   	push   %rbp
    a7a2:	48 89 e5             	mov    %rsp,%rbp
    a7a5:	74 0c                	je     a7b3 <__do_global_dtors_aux+0x23>
    a7a7:	48 8b 3d 52 d8 23 00 	mov    0x23d852(%rip),%rdi        # 248000 <__dso_handle>
    a7ae:	e8 6d d8 ff ff       	callq  8020 <_init+0x68>
    a7b3:	e8 48 ff ff ff       	callq  a700 <deregister_tm_clones>
    a7b8:	5d                   	pop    %rbp
    a7b9:	c6 05 90 d8 23 00 01 	movb   $0x1,0x23d890(%rip)        # 248050 <__TMC_END__>
    a7c0:	f3 c3                	repz retq 
    a7c2:	0f 1f 40 00          	nopl   0x0(%rax)
    a7c6:	66 2e 0f 1f 84 00 00 	nopw   %cs:0x0(%rax,%rax,1)
    a7cd:	00 00 00 

000000000000a7d0 <frame_dummy>:
    a7d0:	48 8d 3d f1 ac 23 00 	lea    0x23acf1(%rip),%rdi        # 2454c8 <__JCR_END__>
    a7d7:	48 83 3f 00          	cmpq   $0x0,(%rdi)
    a7db:	75 0b                	jne    a7e8 <frame_dummy+0x18>
    a7dd:	e9 5e ff ff ff       	jmpq   a740 <register_tm_clones>
    a7e2:	66 0f 1f 44 00 00    	nopw   0x0(%rax,%rax,1)
    a7e8:	48 8b 05 c9 d6 23 00 	mov    0x23d6c9(%rip),%rax        # 247eb8 <_GLOBAL_OFFSET_TABLE_+0x510>
    a7ef:	48 85 c0             	test   %rax,%rax
    a7f2:	74 e9                	je     a7dd <frame_dummy+0xd>
    a7f4:	55                   	push   %rbp
    a7f5:	48 89 e5             	mov    %rsp,%rbp
    a7f8:	ff d0                	callq  *%rax
    a7fa:	5d                   	pop    %rbp
    a7fb:	e9 40 ff ff ff       	jmpq   a740 <register_tm_clones>

000000000000a800 <_ZN4core5alloc6layout10size_align17h231b7f609b0709daE>:
    a800:	48 83 ec 20          	sub    $0x20,%rsp
    a804:	48 c7 44 24 18 01 00 	movq   $0x1,0x18(%rsp)
    a80b:	00 00 
    a80d:	48 8b 44 24 18       	mov    0x18(%rsp),%rax
    a812:	48 89 04 24          	mov    %rax,(%rsp)
    a816:	48 8b 04 24          	mov    (%rsp),%rax
    a81a:	48 c7 44 24 08 01 00 	movq   $0x1,0x8(%rsp)
    a821:	00 00 
    a823:	48 89 44 24 10       	mov    %rax,0x10(%rsp)
    a828:	48 8b 44 24 08       	mov    0x8(%rsp),%rax
    a82d:	48 8b 54 24 10       	mov    0x10(%rsp),%rdx
    a832:	48 83 c4 20          	add    $0x20,%rsp
    a836:	c3                   	retq   
    a837:	66 0f 1f 84 00 00 00 	nopw   0x0(%rax,%rax,1)
    a83e:	00 00 

000000000000a840 <_ZN4core5alloc6layout6Layout12pad_to_align17h2528d185c6e8ed52E>:
    a840:	48 83 ec 68          	sub    $0x68,%rsp
    a844:	48 89 7c 24 40       	mov    %rdi,0x40(%rsp)
    a849:	48 89 7c 24 50       	mov    %rdi,0x50(%rsp)
    a84e:	e8 1d 03 00 00       	callq  ab70 <_ZN4core5alloc6layout6Layout5align17h6a6e6fd908bb0f87E>
    a853:	48 89 44 24 48       	mov    %rax,0x48(%rsp)
    a858:	48 8b 74 24 48       	mov    0x48(%rsp),%rsi
    a85d:	48 8b 7c 24 40       	mov    0x40(%rsp),%rdi
    a862:	e8 99 01 00 00       	callq  aa00 <_ZN4core5alloc6layout6Layout18padding_needed_for17h21679b1176d3949dE>
    a867:	48 89 44 24 38       	mov    %rax,0x38(%rsp)
    a86c:	48 89 44 24 58       	mov    %rax,0x58(%rsp)
    a871:	48 8b 7c 24 40       	mov    0x40(%rsp),%rdi
    a876:	e8 e5 02 00 00       	callq  ab60 <_ZN4core5alloc6layout6Layout4size17h3cde56934bfa8bf2E>
    a87b:	48 89 44 24 30       	mov    %rax,0x30(%rsp)
    a880:	48 8b 7c 24 40       	mov    0x40(%rsp),%rdi
    a885:	48 8b 4c 24 38       	mov    0x38(%rsp),%rcx
    a88a:	48 8b 44 24 30       	mov    0x30(%rsp),%rax
    a88f:	48 01 c8             	add    %rcx,%rax
    a892:	48 89 44 24 20       	mov    %rax,0x20(%rsp)
    a897:	48 89 44 24 60       	mov    %rax,0x60(%rsp)
    a89c:	e8 cf 02 00 00       	callq  ab70 <_ZN4core5alloc6layout6Layout5align17h6a6e6fd908bb0f87E>
    a8a1:	48 89 44 24 28       	mov    %rax,0x28(%rsp)
    a8a6:	48 8b 74 24 28       	mov    0x28(%rsp),%rsi
    a8ab:	48 8b 7c 24 20       	mov    0x20(%rsp),%rdi
    a8b0:	e8 3b 00 00 00       	callq  a8f0 <_ZN4core5alloc6layout6Layout15from_size_align17hea2a8bd40bcffeb9E>
    a8b5:	48 89 44 24 10       	mov    %rax,0x10(%rsp)
    a8ba:	48 89 54 24 18       	mov    %rdx,0x18(%rsp)
    a8bf:	48 8b 74 24 18       	mov    0x18(%rsp),%rsi
    a8c4:	48 8b 7c 24 10       	mov    0x10(%rsp),%rdi
    a8c9:	48 8d 15 00 ac 23 00 	lea    0x23ac00(%rip),%rdx        # 2454d0 <__JCR_END__+0x8>
    a8d0:	e8 9b 16 00 00       	callq  bf70 <_ZN4core6result19Result$LT$T$C$E$GT$6unwrap17hb8dbd508f39d74c2E>
    a8d5:	48 89 04 24          	mov    %rax,(%rsp)
    a8d9:	48 89 54 24 08       	mov    %rdx,0x8(%rsp)
    a8de:	48 8b 54 24 08       	mov    0x8(%rsp),%rdx
    a8e3:	48 8b 04 24          	mov    (%rsp),%rax
    a8e7:	48 83 c4 68          	add    $0x68,%rsp
    a8eb:	c3                   	retq   
    a8ec:	0f 1f 40 00          	nopl   0x0(%rax)

000000000000a8f0 <_ZN4core5alloc6layout6Layout15from_size_align17hea2a8bd40bcffeb9E>:
    a8f0:	48 83 ec 68          	sub    $0x68,%rsp
    a8f4:	48 89 f1             	mov    %rsi,%rcx
    a8f7:	48 89 7c 24 18       	mov    %rdi,0x18(%rsp)
    a8fc:	48 89 4c 24 20       	mov    %rcx,0x20(%rsp)
    a901:	48 89 7c 24 40       	mov    %rdi,0x40(%rsp)
    a906:	48 89 4c 24 48       	mov    %rcx,0x48(%rsp)
    a90b:	48 89 4c 24 50       	mov    %rcx,0x50(%rsp)
    a910:	48 89 4c 24 58       	mov    %rcx,0x58(%rsp)
    a915:	48 89 c8             	mov    %rcx,%rax
    a918:	48 d1 e8             	shr    %rax
    a91b:	48 ba 55 55 55 55 55 	movabs $0x5555555555555555,%rdx
    a922:	55 55 55 
    a925:	48 21 d0             	and    %rdx,%rax
    a928:	48 29 c1             	sub    %rax,%rcx
    a92b:	48 ba 33 33 33 33 33 	movabs $0x3333333333333333,%rdx
    a932:	33 33 33 
    a935:	48 89 c8             	mov    %rcx,%rax
    a938:	48 21 d0             	and    %rdx,%rax
    a93b:	48 c1 e9 02          	shr    $0x2,%rcx
    a93f:	48 21 d1             	and    %rdx,%rcx
    a942:	48 01 c8             	add    %rcx,%rax
    a945:	48 89 c1             	mov    %rax,%rcx
    a948:	48 c1 e9 04          	shr    $0x4,%rcx
    a94c:	48 01 c8             	add    %rcx,%rax
    a94f:	48 b9 0f 0f 0f 0f 0f 	movabs $0xf0f0f0f0f0f0f0f,%rcx
    a956:	0f 0f 0f 
    a959:	48 21 c8             	and    %rcx,%rax
    a95c:	48 b9 01 01 01 01 01 	movabs $0x101010101010101,%rcx
    a963:	01 01 01 
    a966:	48 0f af c1          	imul   %rcx,%rax
    a96a:	48 c1 e8 38          	shr    $0x38,%rax
    a96e:	48 89 44 24 60       	mov    %rax,0x60(%rsp)
    a973:	48 8b 44 24 60       	mov    0x60(%rsp),%rax
    a978:	83 f8 01             	cmp    $0x1,%eax
    a97b:	0f 94 c0             	sete   %al
    a97e:	88 44 24 2f          	mov    %al,0x2f(%rsp)
    a982:	8a 44 24 2f          	mov    0x2f(%rsp),%al
    a986:	34 ff                	xor    $0xff,%al
    a988:	a8 01                	test   $0x1,%al
    a98a:	75 1f                	jne    a9ab <_ZN4core5alloc6layout6Layout15from_size_align17hea2a8bd40bcffeb9E+0xbb>
    a98c:	48 8b 44 24 18       	mov    0x18(%rsp),%rax
    a991:	48 8b 54 24 20       	mov    0x20(%rsp),%rdx
    a996:	48 83 ea 01          	sub    $0x1,%rdx
    a99a:	48 c7 c1 ff ff ff ff 	mov    $0xffffffffffffffff,%rcx
    a9a1:	48 29 d1             	sub    %rdx,%rcx
    a9a4:	48 39 c8             	cmp    %rcx,%rax
    a9a7:	77 35                	ja     a9de <_ZN4core5alloc6layout6Layout15from_size_align17hea2a8bd40bcffeb9E+0xee>
    a9a9:	eb 18                	jmp    a9c3 <_ZN4core5alloc6layout6Layout15from_size_align17hea2a8bd40bcffeb9E+0xd3>
    a9ab:	48 c7 44 24 38 00 00 	movq   $0x0,0x38(%rsp)
    a9b2:	00 00 
    a9b4:	48 8b 44 24 30       	mov    0x30(%rsp),%rax
    a9b9:	48 8b 54 24 38       	mov    0x38(%rsp),%rdx
    a9be:	48 83 c4 68          	add    $0x68,%rsp
    a9c2:	c3                   	retq   
    a9c3:	48 8b 74 24 20       	mov    0x20(%rsp),%rsi
    a9c8:	48 8b 7c 24 18       	mov    0x18(%rsp),%rdi
    a9cd:	e8 ee 00 00 00       	callq  aac0 <_ZN4core5alloc6layout6Layout25from_size_align_unchecked17h64793f866f2c745aE>
    a9d2:	48 89 44 24 08       	mov    %rax,0x8(%rsp)
    a9d7:	48 89 54 24 10       	mov    %rdx,0x10(%rsp)
    a9dc:	eb 0b                	jmp    a9e9 <_ZN4core5alloc6layout6Layout15from_size_align17hea2a8bd40bcffeb9E+0xf9>
    a9de:	48 c7 44 24 38 00 00 	movq   $0x0,0x38(%rsp)
    a9e5:	00 00 
    a9e7:	eb cb                	jmp    a9b4 <_ZN4core5alloc6layout6Layout15from_size_align17hea2a8bd40bcffeb9E+0xc4>
    a9e9:	48 8b 44 24 10       	mov    0x10(%rsp),%rax
    a9ee:	48 8b 4c 24 08       	mov    0x8(%rsp),%rcx
    a9f3:	48 89 4c 24 30       	mov    %rcx,0x30(%rsp)
    a9f8:	48 89 44 24 38       	mov    %rax,0x38(%rsp)
    a9fd:	eb b5                	jmp    a9b4 <_ZN4core5alloc6layout6Layout15from_size_align17hea2a8bd40bcffeb9E+0xc4>
    a9ff:	90                   	nop

000000000000aa00 <_ZN4core5alloc6layout6Layout18padding_needed_for17h21679b1176d3949dE>:
    aa00:	48 81 ec 98 00 00 00 	sub    $0x98,%rsp
    aa07:	48 89 74 24 28       	mov    %rsi,0x28(%rsp)
    aa0c:	48 89 7c 24 38       	mov    %rdi,0x38(%rsp)
    aa11:	48 89 74 24 40       	mov    %rsi,0x40(%rsp)
    aa16:	e8 45 01 00 00       	callq  ab60 <_ZN4core5alloc6layout6Layout4size17h3cde56934bfa8bf2E>
    aa1b:	48 89 44 24 30       	mov    %rax,0x30(%rsp)
    aa20:	48 89 44 24 48       	mov    %rax,0x48(%rsp)
    aa25:	48 8b 4c 24 28       	mov    0x28(%rsp),%rcx
    aa2a:	48 8b 44 24 30       	mov    0x30(%rsp),%rax
    aa2f:	48 89 44 24 58       	mov    %rax,0x58(%rsp)
    aa34:	48 89 4c 24 60       	mov    %rcx,0x60(%rsp)
    aa39:	48 01 c8             	add    %rcx,%rax
    aa3c:	48 89 44 24 20       	mov    %rax,0x20(%rsp)
    aa41:	48 8b 44 24 20       	mov    0x20(%rsp),%rax
    aa46:	48 89 84 24 88 00 00 	mov    %rax,0x88(%rsp)
    aa4d:	00 
    aa4e:	48 c7 84 24 90 00 00 	movq   $0x1,0x90(%rsp)
    aa55:	00 01 00 00 00 
    aa5a:	48 83 e8 01          	sub    $0x1,%rax
    aa5e:	48 89 44 24 18       	mov    %rax,0x18(%rsp)
    aa63:	48 8b 44 24 28       	mov    0x28(%rsp),%rax
    aa68:	48 89 44 24 78       	mov    %rax,0x78(%rsp)
    aa6d:	48 c7 84 24 80 00 00 	movq   $0x1,0x80(%rsp)
    aa74:	00 01 00 00 00 
    aa79:	48 83 e8 01          	sub    $0x1,%rax
    aa7d:	48 89 44 24 10       	mov    %rax,0x10(%rsp)
    aa82:	48 8b 4c 24 30       	mov    0x30(%rsp),%rcx
    aa87:	48 8b 44 24 18       	mov    0x18(%rsp),%rax
    aa8c:	48 8b 54 24 10       	mov    0x10(%rsp),%rdx
    aa91:	48 83 f2 ff          	xor    $0xffffffffffffffff,%rdx
    aa95:	48 21 d0             	and    %rdx,%rax
    aa98:	48 89 44 24 50       	mov    %rax,0x50(%rsp)
    aa9d:	48 89 44 24 68       	mov    %rax,0x68(%rsp)
    aaa2:	48 89 4c 24 70       	mov    %rcx,0x70(%rsp)
    aaa7:	48 29 c8             	sub    %rcx,%rax
    aaaa:	48 89 44 24 08       	mov    %rax,0x8(%rsp)
    aaaf:	48 8b 44 24 08       	mov    0x8(%rsp),%rax
    aab4:	48 81 c4 98 00 00 00 	add    $0x98,%rsp
    aabb:	c3                   	retq   
    aabc:	0f 1f 40 00          	nopl   0x0(%rax)

000000000000aac0 <_ZN4core5alloc6layout6Layout25from_size_align_unchecked17h64793f866f2c745aE>:
    aac0:	48 83 ec 38          	sub    $0x38,%rsp
    aac4:	48 89 34 24          	mov    %rsi,(%rsp)
    aac8:	48 89 f8             	mov    %rdi,%rax
    aacb:	48 8b 3c 24          	mov    (%rsp),%rdi
    aacf:	48 89 44 24 08       	mov    %rax,0x8(%rsp)
    aad4:	48 89 44 24 28       	mov    %rax,0x28(%rsp)
    aad9:	48 89 7c 24 30       	mov    %rdi,0x30(%rsp)
    aade:	e8 3d 1c 00 00       	callq  c720 <_ZN4core3num7nonzero12NonZeroUsize13new_unchecked17h3a642b0c7da0b356E>
    aae3:	48 89 44 24 10       	mov    %rax,0x10(%rsp)
    aae8:	48 8b 44 24 10       	mov    0x10(%rsp),%rax
    aaed:	48 8b 4c 24 08       	mov    0x8(%rsp),%rcx
    aaf2:	48 89 4c 24 18       	mov    %rcx,0x18(%rsp)
    aaf7:	48 89 44 24 20       	mov    %rax,0x20(%rsp)
    aafc:	48 8b 44 24 18       	mov    0x18(%rsp),%rax
    ab01:	48 8b 54 24 20       	mov    0x20(%rsp),%rdx
    ab06:	48 83 c4 38          	add    $0x38,%rsp
    ab0a:	c3                   	retq   
    ab0b:	0f 1f 44 00 00       	nopl   0x0(%rax,%rax,1)

000000000000ab10 <_ZN4core5alloc6layout6Layout3new17h0a21fcea30bfe7ebE>:
    ab10:	48 83 ec 38          	sub    $0x38,%rsp
    ab14:	e8 e7 fc ff ff       	callq  a800 <_ZN4core5alloc6layout10size_align17h231b7f609b0709daE>
    ab19:	48 89 44 24 18       	mov    %rax,0x18(%rsp)
    ab1e:	48 89 54 24 20       	mov    %rdx,0x20(%rsp)
    ab23:	48 8b 74 24 20       	mov    0x20(%rsp),%rsi
    ab28:	48 8b 7c 24 18       	mov    0x18(%rsp),%rdi
    ab2d:	48 89 7c 24 28       	mov    %rdi,0x28(%rsp)
    ab32:	48 89 74 24 30       	mov    %rsi,0x30(%rsp)
    ab37:	e8 84 ff ff ff       	callq  aac0 <_ZN4core5alloc6layout6Layout25from_size_align_unchecked17h64793f866f2c745aE>
    ab3c:	48 89 44 24 08       	mov    %rax,0x8(%rsp)
    ab41:	48 89 54 24 10       	mov    %rdx,0x10(%rsp)
    ab46:	48 8b 54 24 10       	mov    0x10(%rsp),%rdx
    ab4b:	48 8b 44 24 08       	mov    0x8(%rsp),%rax
    ab50:	48 83 c4 38          	add    $0x38,%rsp
    ab54:	c3                   	retq   
    ab55:	66 2e 0f 1f 84 00 00 	nopw   %cs:0x0(%rax,%rax,1)
    ab5c:	00 00 00 
    ab5f:	90                   	nop

000000000000ab60 <_ZN4core5alloc6layout6Layout4size17h3cde56934bfa8bf2E>:
    ab60:	50                   	push   %rax
    ab61:	48 89 3c 24          	mov    %rdi,(%rsp)
    ab65:	48 8b 07             	mov    (%rdi),%rax
    ab68:	59                   	pop    %rcx
    ab69:	c3                   	retq   
    ab6a:	66 0f 1f 44 00 00    	nopw   0x0(%rax,%rax,1)

000000000000ab70 <_ZN4core5alloc6layout6Layout5align17h6a6e6fd908bb0f87E>:
    ab70:	48 83 ec 18          	sub    $0x18,%rsp
    ab74:	48 89 7c 24 10       	mov    %rdi,0x10(%rsp)
    ab79:	48 8b 7f 08          	mov    0x8(%rdi),%rdi
    ab7d:	e8 be 1b 00 00       	callq  c740 <_ZN4core3num7nonzero12NonZeroUsize3get17hb244dd31d9e81f5eE>
    ab82:	48 89 44 24 08       	mov    %rax,0x8(%rsp)
    ab87:	48 8b 44 24 08       	mov    0x8(%rsp),%rax
    ab8c:	48 83 c4 18          	add    $0x18,%rsp
    ab90:	c3                   	retq   
    ab91:	66 2e 0f 1f 84 00 00 	nopw   %cs:0x0(%rax,%rax,1)
    ab98:	00 00 00 
    ab9b:	0f 1f 44 00 00       	nopl   0x0(%rax,%rax,1)

000000000000aba0 <_ZN4core5alloc6layout6Layout5array17hc6be41126800d478E>:
    aba0:	48 81 ec c8 00 00 00 	sub    $0xc8,%rsp
    aba7:	48 89 7c 24 18       	mov    %rdi,0x18(%rsp)
    abac:	48 89 bc 24 b0 00 00 	mov    %rdi,0xb0(%rsp)
    abb3:	00 
    abb4:	e8 57 ff ff ff       	callq  ab10 <_ZN4core5alloc6layout6Layout3new17h0a21fcea30bfe7ebE>
    abb9:	48 89 94 24 90 00 00 	mov    %rdx,0x90(%rsp)
    abc0:	00 
    abc1:	48 89 84 24 88 00 00 	mov    %rax,0x88(%rsp)
    abc8:	00 
    abc9:	48 8b 54 24 18       	mov    0x18(%rsp),%rdx
    abce:	48 8d 7c 24 70       	lea    0x70(%rsp),%rdi
    abd3:	48 8d b4 24 88 00 00 	lea    0x88(%rsp),%rsi
    abda:	00 
    abdb:	e8 f0 00 00 00       	callq  acd0 <_ZN4core5alloc6layout6Layout6repeat17h62f3edfd0362a541E>
    abe0:	48 8d 7c 24 58       	lea    0x58(%rsp),%rdi
    abe5:	48 8d 74 24 70       	lea    0x70(%rsp),%rsi
    abea:	e8 11 14 00 00       	callq  c000 <_ZN79_$LT$core..result..Result$LT$T$C$E$GT$$u20$as$u20$core..ops..try_trait..Try$GT$6branch17h37e55bdbbf425523E>
    abef:	48 8b 44 24 60       	mov    0x60(%rsp),%rax
    abf4:	48 85 c0             	test   %rax,%rax
    abf7:	0f 94 c0             	sete   %al
    abfa:	0f b6 c0             	movzbl %al,%eax
    abfd:	75 09                	jne    ac08 <_ZN4core5alloc6layout6Layout5array17hc6be41126800d478E+0x68>
    abff:	eb 00                	jmp    ac01 <_ZN4core5alloc6layout6Layout5array17hc6be41126800d478E+0x61>
    ac01:	e9 87 00 00 00       	jmpq   ac8d <_ZN4core5alloc6layout6Layout5array17hc6be41126800d478E+0xed>
    ac06:	0f 0b                	ud2    
    ac08:	48 8b 44 24 58       	mov    0x58(%rsp),%rax
    ac0d:	48 89 84 24 98 00 00 	mov    %rax,0x98(%rsp)
    ac14:	00 
    ac15:	48 8b 44 24 60       	mov    0x60(%rsp),%rax
    ac1a:	48 89 84 24 a0 00 00 	mov    %rax,0xa0(%rsp)
    ac21:	00 
    ac22:	48 8b 44 24 68       	mov    0x68(%rsp),%rax
    ac27:	48 89 84 24 a8 00 00 	mov    %rax,0xa8(%rsp)
    ac2e:	00 
    ac2f:	48 8b 84 24 98 00 00 	mov    0x98(%rsp),%rax
    ac36:	00 
    ac37:	48 89 44 24 40       	mov    %rax,0x40(%rsp)
    ac3c:	48 8b 84 24 a0 00 00 	mov    0xa0(%rsp),%rax
    ac43:	00 
    ac44:	48 89 44 24 48       	mov    %rax,0x48(%rsp)
    ac49:	48 8b 84 24 a8 00 00 	mov    0xa8(%rsp),%rax
    ac50:	00 
    ac51:	48 89 44 24 50       	mov    %rax,0x50(%rsp)
    ac56:	48 8b 4c 24 40       	mov    0x40(%rsp),%rcx
    ac5b:	48 8b 44 24 48       	mov    0x48(%rsp),%rax
    ac60:	48 89 4c 24 30       	mov    %rcx,0x30(%rsp)
    ac65:	48 89 44 24 38       	mov    %rax,0x38(%rsp)
    ac6a:	48 8b 44 24 50       	mov    0x50(%rsp),%rax
    ac6f:	48 89 84 24 c0 00 00 	mov    %rax,0xc0(%rsp)
    ac76:	00 
    ac77:	48 8d 7c 24 30       	lea    0x30(%rsp),%rdi
    ac7c:	e8 bf fb ff ff       	callq  a840 <_ZN4core5alloc6layout6Layout12pad_to_align17h2528d185c6e8ed52E>
    ac81:	48 89 44 24 08       	mov    %rax,0x8(%rsp)
    ac86:	48 89 54 24 10       	mov    %rdx,0x10(%rsp)
    ac8b:	eb 23                	jmp    acb0 <_ZN4core5alloc6layout6Layout5array17hc6be41126800d478E+0x110>
    ac8d:	e8 4e 12 00 00       	callq  bee0 <_ZN153_$LT$core..result..Result$LT$T$C$F$GT$$u20$as$u20$core..ops..try_trait..FromResidual$LT$core..result..Result$LT$core..convert..Infallible$C$E$GT$$GT$$GT$13from_residual17h37cdf0669d132812E>
    ac92:	48 89 54 24 28       	mov    %rdx,0x28(%rsp)
    ac97:	48 89 44 24 20       	mov    %rax,0x20(%rsp)
    ac9c:	eb 00                	jmp    ac9e <_ZN4core5alloc6layout6Layout5array17hc6be41126800d478E+0xfe>
    ac9e:	48 8b 44 24 20       	mov    0x20(%rsp),%rax
    aca3:	48 8b 54 24 28       	mov    0x28(%rsp),%rdx
    aca8:	48 81 c4 c8 00 00 00 	add    $0xc8,%rsp
    acaf:	c3                   	retq   
    acb0:	48 8b 44 24 10       	mov    0x10(%rsp),%rax
    acb5:	48 8b 4c 24 08       	mov    0x8(%rsp),%rcx
    acba:	48 89 4c 24 20       	mov    %rcx,0x20(%rsp)
    acbf:	48 89 44 24 28       	mov    %rax,0x28(%rsp)
    acc4:	eb d8                	jmp    ac9e <_ZN4core5alloc6layout6Layout5array17hc6be41126800d478E+0xfe>
    acc6:	66 2e 0f 1f 84 00 00 	nopw   %cs:0x0(%rax,%rax,1)
    accd:	00 00 00 

000000000000acd0 <_ZN4core5alloc6layout6Layout6repeat17h62f3edfd0362a541E>:
    acd0:	48 81 ec e8 00 00 00 	sub    $0xe8,%rsp
    acd7:	48 89 54 24 60       	mov    %rdx,0x60(%rsp)
    acdc:	48 89 74 24 68       	mov    %rsi,0x68(%rsp)
    ace1:	48 89 f8             	mov    %rdi,%rax
    ace4:	48 8b 7c 24 68       	mov    0x68(%rsp),%rdi
    ace9:	48 89 44 24 70       	mov    %rax,0x70(%rsp)
    acee:	48 89 44 24 78       	mov    %rax,0x78(%rsp)
    acf3:	48 89 bc 24 b8 00 00 	mov    %rdi,0xb8(%rsp)
    acfa:	00 
    acfb:	48 89 94 24 c0 00 00 	mov    %rdx,0xc0(%rsp)
    ad02:	00 
    ad03:	e8 58 fe ff ff       	callq  ab60 <_ZN4core5alloc6layout6Layout4size17h3cde56934bfa8bf2E>
    ad08:	48 89 84 24 80 00 00 	mov    %rax,0x80(%rsp)
    ad0f:	00 
    ad10:	48 8b 7c 24 68       	mov    0x68(%rsp),%rdi
    ad15:	e8 56 fe ff ff       	callq  ab70 <_ZN4core5alloc6layout6Layout5align17h6a6e6fd908bb0f87E>
    ad1a:	48 89 44 24 58       	mov    %rax,0x58(%rsp)
    ad1f:	48 8b 74 24 58       	mov    0x58(%rsp),%rsi
    ad24:	48 8b 7c 24 68       	mov    0x68(%rsp),%rdi
    ad29:	e8 d2 fc ff ff       	callq  aa00 <_ZN4core5alloc6layout6Layout18padding_needed_for17h21679b1176d3949dE>
    ad2e:	48 89 44 24 50       	mov    %rax,0x50(%rsp)
    ad33:	48 8b 74 24 60       	mov    0x60(%rsp),%rsi
    ad38:	48 8b 44 24 50       	mov    0x50(%rsp),%rax
    ad3d:	48 8b bc 24 80 00 00 	mov    0x80(%rsp),%rdi
    ad44:	00 
    ad45:	48 01 c7             	add    %rax,%rdi
    ad48:	48 89 7c 24 38       	mov    %rdi,0x38(%rsp)
    ad4d:	48 89 bc 24 d0 00 00 	mov    %rdi,0xd0(%rsp)
    ad54:	00 
    ad55:	e8 56 0c 00 00       	callq  b9b0 <_ZN4core3num23_$LT$impl$u20$usize$GT$11checked_mul17h3ec0dbab3ef624f3E>
    ad5a:	48 89 44 24 40       	mov    %rax,0x40(%rsp)
    ad5f:	48 89 54 24 48       	mov    %rdx,0x48(%rsp)
    ad64:	48 8b 74 24 48       	mov    0x48(%rsp),%rsi
    ad69:	48 8b 7c 24 40       	mov    0x40(%rsp),%rdi
    ad6e:	e8 7d 1a 00 00       	callq  c7f0 <_ZN4core6option15Option$LT$T$GT$5ok_or17h2c870218cd852658E>
    ad73:	48 89 44 24 28       	mov    %rax,0x28(%rsp)
    ad78:	48 89 54 24 30       	mov    %rdx,0x30(%rsp)
    ad7d:	48 8b 74 24 30       	mov    0x30(%rsp),%rsi
    ad82:	48 8b 7c 24 28       	mov    0x28(%rsp),%rdi
    ad87:	e8 54 13 00 00       	callq  c0e0 <_ZN79_$LT$core..result..Result$LT$T$C$E$GT$$u20$as$u20$core..ops..try_trait..Try$GT$6branch17hf07cd0acbf55fa4cE>
    ad8c:	48 89 94 24 90 00 00 	mov    %rdx,0x90(%rsp)
    ad93:	00 
    ad94:	48 89 84 24 88 00 00 	mov    %rax,0x88(%rsp)
    ad9b:	00 
    ad9c:	48 8b 84 24 88 00 00 	mov    0x88(%rsp),%rax
    ada3:	00 
    ada4:	48 85 c0             	test   %rax,%rax
    ada7:	74 06                	je     adaf <_ZN4core5alloc6layout6Layout6repeat17h62f3edfd0362a541E+0xdf>
    ada9:	eb 00                	jmp    adab <_ZN4core5alloc6layout6Layout6repeat17h62f3edfd0362a541E+0xdb>
    adab:	eb 30                	jmp    addd <_ZN4core5alloc6layout6Layout6repeat17h62f3edfd0362a541E+0x10d>
    adad:	0f 0b                	ud2    
    adaf:	48 8b 7c 24 68       	mov    0x68(%rsp),%rdi
    adb4:	48 8b 84 24 90 00 00 	mov    0x90(%rsp),%rax
    adbb:	00 
    adbc:	48 89 44 24 18       	mov    %rax,0x18(%rsp)
    adc1:	48 89 84 24 d8 00 00 	mov    %rax,0xd8(%rsp)
    adc8:	00 
    adc9:	48 89 84 24 e0 00 00 	mov    %rax,0xe0(%rsp)
    add0:	00 
    add1:	e8 9a fd ff ff       	callq  ab70 <_ZN4core5alloc6layout6Layout5align17h6a6e6fd908bb0f87E>
    add6:	48 89 44 24 20       	mov    %rax,0x20(%rsp)
    addb:	eb 19                	jmp    adf6 <_ZN4core5alloc6layout6Layout6repeat17h62f3edfd0362a541E+0x126>
    addd:	48 8b 7c 24 70       	mov    0x70(%rsp),%rdi
    ade2:	e8 59 11 00 00       	callq  bf40 <_ZN153_$LT$core..result..Result$LT$T$C$F$GT$$u20$as$u20$core..ops..try_trait..FromResidual$LT$core..result..Result$LT$core..convert..Infallible$C$E$GT$$GT$$GT$13from_residual17hd6b32a77e6475e89E>
    ade7:	eb 00                	jmp    ade9 <_ZN4core5alloc6layout6Layout6repeat17h62f3edfd0362a541E+0x119>
    ade9:	48 8b 44 24 78       	mov    0x78(%rsp),%rax
    adee:	48 81 c4 e8 00 00 00 	add    $0xe8,%rsp
    adf5:	c3                   	retq   
    adf6:	48 8b 74 24 20       	mov    0x20(%rsp),%rsi
    adfb:	48 8b 7c 24 18       	mov    0x18(%rsp),%rdi
    ae00:	e8 bb fc ff ff       	callq  aac0 <_ZN4core5alloc6layout6Layout25from_size_align_unchecked17h64793f866f2c745aE>
    ae05:	48 89 44 24 08       	mov    %rax,0x8(%rsp)
    ae0a:	48 89 54 24 10       	mov    %rdx,0x10(%rsp)
    ae0f:	48 8b 44 24 70       	mov    0x70(%rsp),%rax
    ae14:	48 8b 4c 24 38       	mov    0x38(%rsp),%rcx
    ae19:	48 8b 54 24 10       	mov    0x10(%rsp),%rdx
    ae1e:	48 8b 74 24 08       	mov    0x8(%rsp),%rsi
    ae23:	48 89 b4 24 a0 00 00 	mov    %rsi,0xa0(%rsp)
    ae2a:	00 
    ae2b:	48 89 94 24 a8 00 00 	mov    %rdx,0xa8(%rsp)
    ae32:	00 
    ae33:	48 89 8c 24 b0 00 00 	mov    %rcx,0xb0(%rsp)
    ae3a:	00 
    ae3b:	48 8b 8c 24 a0 00 00 	mov    0xa0(%rsp),%rcx
    ae42:	00 
    ae43:	48 89 08             	mov    %rcx,(%rax)
    ae46:	48 8b 8c 24 a8 00 00 	mov    0xa8(%rsp),%rcx
    ae4d:	00 
    ae4e:	48 89 48 08          	mov    %rcx,0x8(%rax)
    ae52:	48 8b 8c 24 b0 00 00 	mov    0xb0(%rsp),%rcx
    ae59:	00 
    ae5a:	48 89 48 10          	mov    %rcx,0x10(%rax)
    ae5e:	eb 89                	jmp    ade9 <_ZN4core5alloc6layout6Layout6repeat17h62f3edfd0362a541E+0x119>

000000000000ae60 <_ZN4core5alloc6layout6Layout8dangling17h16d56b70b122496bE>:
    ae60:	48 83 ec 18          	sub    $0x18,%rsp
    ae64:	48 89 7c 24 10       	mov    %rdi,0x10(%rsp)
    ae69:	e8 02 fd ff ff       	callq  ab70 <_ZN4core5alloc6layout6Layout5align17h6a6e6fd908bb0f87E>
    ae6e:	48 89 44 24 08       	mov    %rax,0x8(%rsp)
    ae73:	48 8b 7c 24 08       	mov    0x8(%rsp),%rdi
    ae78:	e8 e3 12 00 00       	callq  c160 <_ZN4core3ptr8non_null16NonNull$LT$T$GT$13new_unchecked17ha4e81e0ec7e43750E>
    ae7d:	48 89 04 24          	mov    %rax,(%rsp)
    ae81:	48 8b 04 24          	mov    (%rsp),%rax
    ae85:	48 83 c4 18          	add    $0x18,%rsp
    ae89:	c3                   	retq   
    ae8a:	66 0f 1f 44 00 00    	nopw   0x0(%rax,%rax,1)

000000000000ae90 <_ZN50_$LT$T$u20$as$u20$core..convert..From$LT$T$GT$$GT$4from17h40e1305148e77520E>:
    ae90:	50                   	push   %rax
    ae91:	58                   	pop    %rax
    ae92:	c3                   	retq   
    ae93:	66 2e 0f 1f 84 00 00 	nopw   %cs:0x0(%rax,%rax,1)
    ae9a:	00 00 00 
    ae9d:	0f 1f 00             	nopl   (%rax)

000000000000aea0 <_ZN5alloc7raw_vec11alloc_guard17h288f32451d811c7bE>:
    aea0:	48 83 ec 28          	sub    $0x28,%rsp
    aea4:	48 89 3c 24          	mov    %rdi,(%rsp)
    aea8:	48 89 7c 24 08       	mov    %rdi,0x8(%rsp)
    aead:	48 89 74 24 20       	mov    %rsi,0x20(%rsp)
    aeb2:	31 c0                	xor    %eax,%eax
    aeb4:	a8 01                	test   $0x1,%al
    aeb6:	75 0d                	jne    aec5 <_ZN5alloc7raw_vec11alloc_guard17h288f32451d811c7bE+0x25>
    aeb8:	48 8b 04 24          	mov    (%rsp),%rax
    aebc:	48 c7 00 00 00 00 00 	movq   $0x0,(%rax)
    aec3:	eb 26                	jmp    aeeb <_ZN5alloc7raw_vec11alloc_guard17h288f32451d811c7bE+0x4b>
    aec5:	48 8b 04 24          	mov    (%rsp),%rax
    aec9:	48 c7 44 24 18 00 00 	movq   $0x0,0x18(%rsp)
    aed0:	00 00 
    aed2:	48 8b 54 24 10       	mov    0x10(%rsp),%rdx
    aed7:	48 8b 4c 24 18       	mov    0x18(%rsp),%rcx
    aedc:	48 89 50 08          	mov    %rdx,0x8(%rax)
    aee0:	48 89 48 10          	mov    %rcx,0x10(%rax)
    aee4:	48 c7 00 01 00 00 00 	movq   $0x1,(%rax)
    aeeb:	48 8b 44 24 08       	mov    0x8(%rsp),%rax
    aef0:	48 83 c4 28          	add    $0x28,%rsp
    aef4:	c3                   	retq   
    aef5:	66 2e 0f 1f 84 00 00 	nopw   %cs:0x0(%rax,%rax,1)
    aefc:	00 00 00 
    aeff:	90                   	nop

000000000000af00 <_ZN5alloc7raw_vec19RawVec$LT$T$C$A$GT$11allocate_in17h8022d70d6ffca361E>:
    af00:	48 81 ec 48 01 00 00 	sub    $0x148,%rsp
    af07:	48 89 bc 24 88 00 00 	mov    %rdi,0x88(%rsp)
    af0e:	00 
    af0f:	40 88 f0             	mov    %sil,%al
    af12:	24 01                	and    $0x1,%al
    af14:	88 84 24 97 00 00 00 	mov    %al,0x97(%rsp)
    af1b:	48 89 bc 24 00 01 00 	mov    %rdi,0x100(%rsp)
    af22:	00 
    af23:	c6 84 24 ff 00 00 00 	movb   $0x0,0xff(%rsp)
    af2a:	00 
    af2b:	c6 84 24 ff 00 00 00 	movb   $0x1,0xff(%rsp)
    af32:	01 
    af33:	b8 01 00 00 00       	mov    $0x1,%eax
    af38:	48 83 f8 00          	cmp    $0x0,%rax
    af3c:	74 2b                	je     af69 <_ZN5alloc7raw_vec19RawVec$LT$T$C$A$GT$11allocate_in17h8022d70d6ffca361E+0x69>
    af3e:	eb 4e                	jmp    af8e <_ZN5alloc7raw_vec19RawVec$LT$T$C$A$GT$11allocate_in17h8022d70d6ffca361E+0x8e>
    af40:	f6 84 24 ff 00 00 00 	testb  $0x1,0xff(%rsp)
    af47:	01 
    af48:	0f 85 f8 02 00 00    	jne    b246 <_ZN5alloc7raw_vec19RawVec$LT$T$C$A$GT$11allocate_in17h8022d70d6ffca361E+0x346>
    af4e:	e9 e4 02 00 00       	jmpq   b237 <_ZN5alloc7raw_vec19RawVec$LT$T$C$A$GT$11allocate_in17h8022d70d6ffca361E+0x337>
    af53:	48 89 c1             	mov    %rax,%rcx
    af56:	89 d0                	mov    %edx,%eax
    af58:	48 89 8c 24 08 01 00 	mov    %rcx,0x108(%rsp)
    af5f:	00 
    af60:	89 84 24 10 01 00 00 	mov    %eax,0x110(%rsp)
    af67:	eb d7                	jmp    af40 <_ZN5alloc7raw_vec19RawVec$LT$T$C$A$GT$11allocate_in17h8022d70d6ffca361E+0x40>
    af69:	c6 84 24 ff 00 00 00 	movb   $0x0,0xff(%rsp)
    af70:	00 
    af71:	e8 aa 04 00 00       	callq  b420 <_ZN5alloc7raw_vec19RawVec$LT$T$C$A$GT$6new_in17h93bd3bfc2b1ba6e6E>
    af76:	48 89 c1             	mov    %rax,%rcx
    af79:	48 89 d6             	mov    %rdx,%rsi
    af7c:	48 89 74 24 78       	mov    %rsi,0x78(%rsp)
    af81:	48 89 8c 24 80 00 00 	mov    %rcx,0x80(%rsp)
    af88:	00 
    af89:	e9 8a 02 00 00       	jmpq   b218 <_ZN5alloc7raw_vec19RawVec$LT$T$C$A$GT$11allocate_in17h8022d70d6ffca361E+0x318>
    af8e:	48 8b bc 24 88 00 00 	mov    0x88(%rsp),%rdi
    af95:	00 
    af96:	e8 05 fc ff ff       	callq  aba0 <_ZN4core5alloc6layout6Layout5array17hc6be41126800d478E>
    af9b:	48 89 c1             	mov    %rax,%rcx
    af9e:	48 89 d6             	mov    %rdx,%rsi
    afa1:	48 89 74 24 68       	mov    %rsi,0x68(%rsp)
    afa6:	48 89 4c 24 70       	mov    %rcx,0x70(%rsp)
    afab:	eb 00                	jmp    afad <_ZN5alloc7raw_vec19RawVec$LT$T$C$A$GT$11allocate_in17h8022d70d6ffca361E+0xad>
    afad:	48 8b 44 24 68       	mov    0x68(%rsp),%rax
    afb2:	48 8b 4c 24 70       	mov    0x70(%rsp),%rcx
    afb7:	48 89 8c 24 c0 00 00 	mov    %rcx,0xc0(%rsp)
    afbe:	00 
    afbf:	48 89 84 24 c8 00 00 	mov    %rax,0xc8(%rsp)
    afc6:	00 
    afc7:	48 8b 84 24 c8 00 00 	mov    0xc8(%rsp),%rax
    afce:	00 
    afcf:	48 85 c0             	test   %rax,%rax
    afd2:	0f 94 c0             	sete   %al
    afd5:	0f b6 c0             	movzbl %al,%eax
    afd8:	75 06                	jne    afe0 <_ZN5alloc7raw_vec19RawVec$LT$T$C$A$GT$11allocate_in17h8022d70d6ffca361E+0xe0>
    afda:	eb 00                	jmp    afdc <_ZN5alloc7raw_vec19RawVec$LT$T$C$A$GT$11allocate_in17h8022d70d6ffca361E+0xdc>
    afdc:	eb 49                	jmp    b027 <_ZN5alloc7raw_vec19RawVec$LT$T$C$A$GT$11allocate_in17h8022d70d6ffca361E+0x127>
    afde:	0f 0b                	ud2    
    afe0:	48 8b 8c 24 c0 00 00 	mov    0xc0(%rsp),%rcx
    afe7:	00 
    afe8:	48 8b 84 24 c8 00 00 	mov    0xc8(%rsp),%rax
    afef:	00 
    aff0:	48 89 8c 24 18 01 00 	mov    %rcx,0x118(%rsp)
    aff7:	00 
    aff8:	48 89 84 24 20 01 00 	mov    %rax,0x120(%rsp)
    afff:	00 
    b000:	48 89 8c 24 b0 00 00 	mov    %rcx,0xb0(%rsp)
    b007:	00 
    b008:	48 89 84 24 b8 00 00 	mov    %rax,0xb8(%rsp)
    b00f:	00 
    b010:	48 8d bc 24 b0 00 00 	lea    0xb0(%rsp),%rdi
    b017:	00 
    b018:	e8 43 fb ff ff       	callq  ab60 <_ZN4core5alloc6layout6Layout4size17h3cde56934bfa8bf2E>
    b01d:	48 89 c1             	mov    %rax,%rcx
    b020:	48 89 4c 24 60       	mov    %rcx,0x60(%rsp)
    b025:	eb 0d                	jmp    b034 <_ZN5alloc7raw_vec19RawVec$LT$T$C$A$GT$11allocate_in17h8022d70d6ffca361E+0x134>
    b027:	48 8d 0d 32 85 02 00 	lea    0x28532(%rip),%rcx        # 33560 <_ZN5alloc7raw_vec17capacity_overflow17h295ba4e6b8e71b26E>
    b02e:	ff d1                	callq  *%rcx
    b030:	eb 00                	jmp    b032 <_ZN5alloc7raw_vec19RawVec$LT$T$C$A$GT$11allocate_in17h8022d70d6ffca361E+0x132>
    b032:	0f 0b                	ud2    
    b034:	48 8b 74 24 60       	mov    0x60(%rsp),%rsi
    b039:	48 8d bc 24 d0 00 00 	lea    0xd0(%rsp),%rdi
    b040:	00 
    b041:	e8 5a fe ff ff       	callq  aea0 <_ZN5alloc7raw_vec11alloc_guard17h288f32451d811c7bE>
    b046:	eb 00                	jmp    b048 <_ZN5alloc7raw_vec19RawVec$LT$T$C$A$GT$11allocate_in17h8022d70d6ffca361E+0x148>
    b048:	48 8b 84 24 d0 00 00 	mov    0xd0(%rsp),%rax
    b04f:	00 
    b050:	48 85 c0             	test   %rax,%rax
    b053:	74 06                	je     b05b <_ZN5alloc7raw_vec19RawVec$LT$T$C$A$GT$11allocate_in17h8022d70d6ffca361E+0x15b>
    b055:	eb 00                	jmp    b057 <_ZN5alloc7raw_vec19RawVec$LT$T$C$A$GT$11allocate_in17h8022d70d6ffca361E+0x157>
    b057:	eb 12                	jmp    b06b <_ZN5alloc7raw_vec19RawVec$LT$T$C$A$GT$11allocate_in17h8022d70d6ffca361E+0x16b>
    b059:	0f 0b                	ud2    
    b05b:	0f b6 84 24 97 00 00 	movzbl 0x97(%rsp),%eax
    b062:	00 
    b063:	a8 01                	test   $0x1,%al
    b065:	74 11                	je     b078 <_ZN5alloc7raw_vec19RawVec$LT$T$C$A$GT$11allocate_in17h8022d70d6ffca361E+0x178>
    b067:	eb 00                	jmp    b069 <_ZN5alloc7raw_vec19RawVec$LT$T$C$A$GT$11allocate_in17h8022d70d6ffca361E+0x169>
    b069:	eb 3c                	jmp    b0a7 <_ZN5alloc7raw_vec19RawVec$LT$T$C$A$GT$11allocate_in17h8022d70d6ffca361E+0x1a7>
    b06b:	48 8d 0d ee 84 02 00 	lea    0x284ee(%rip),%rcx        # 33560 <_ZN5alloc7raw_vec17capacity_overflow17h295ba4e6b8e71b26E>
    b072:	ff d1                	callq  *%rcx
    b074:	eb bc                	jmp    b032 <_ZN5alloc7raw_vec19RawVec$LT$T$C$A$GT$11allocate_in17h8022d70d6ffca361E+0x132>
    b076:	0f 0b                	ud2    
    b078:	48 8b b4 24 b0 00 00 	mov    0xb0(%rsp),%rsi
    b07f:	00 
    b080:	48 8b 94 24 b8 00 00 	mov    0xb8(%rsp),%rdx
    b087:	00 
    b088:	48 8d bc 24 98 00 00 	lea    0x98(%rsp),%rdi
    b08f:	00 
    b090:	e8 0b 0e 00 00       	callq  bea0 <_ZN63_$LT$alloc..alloc..Global$u20$as$u20$core..alloc..Allocator$GT$8allocate17h02a499ea860639cfE>
    b095:	48 89 c1             	mov    %rax,%rcx
    b098:	48 89 d6             	mov    %rdx,%rsi
    b09b:	48 89 74 24 50       	mov    %rsi,0x50(%rsp)
    b0a0:	48 89 4c 24 58       	mov    %rcx,0x58(%rsp)
    b0a5:	eb 60                	jmp    b107 <_ZN5alloc7raw_vec19RawVec$LT$T$C$A$GT$11allocate_in17h8022d70d6ffca361E+0x207>
    b0a7:	48 8b b4 24 b0 00 00 	mov    0xb0(%rsp),%rsi
    b0ae:	00 
    b0af:	48 8b 94 24 b8 00 00 	mov    0xb8(%rsp),%rdx
    b0b6:	00 
    b0b7:	48 8d bc 24 98 00 00 	lea    0x98(%rsp),%rdi
    b0be:	00 
    b0bf:	e8 9c 0d 00 00       	callq  be60 <_ZN63_$LT$alloc..alloc..Global$u20$as$u20$core..alloc..Allocator$GT$15allocate_zeroed17hd0bc96ff4a99f824E>
    b0c4:	48 89 c1             	mov    %rax,%rcx
    b0c7:	48 89 d6             	mov    %rdx,%rsi
    b0ca:	48 89 74 24 40       	mov    %rsi,0x40(%rsp)
    b0cf:	48 89 4c 24 48       	mov    %rcx,0x48(%rsp)
    b0d4:	eb 00                	jmp    b0d6 <_ZN5alloc7raw_vec19RawVec$LT$T$C$A$GT$11allocate_in17h8022d70d6ffca361E+0x1d6>
    b0d6:	48 8b 44 24 40       	mov    0x40(%rsp),%rax
    b0db:	48 8b 4c 24 48       	mov    0x48(%rsp),%rcx
    b0e0:	48 89 8c 24 e8 00 00 	mov    %rcx,0xe8(%rsp)
    b0e7:	00 
    b0e8:	48 89 84 24 f0 00 00 	mov    %rax,0xf0(%rsp)
    b0ef:	00 
    b0f0:	48 8b 84 24 e8 00 00 	mov    0xe8(%rsp),%rax
    b0f7:	00 
    b0f8:	48 85 c0             	test   %rax,%rax
    b0fb:	0f 94 c0             	sete   %al
    b0fe:	0f b6 c0             	movzbl %al,%eax
    b101:	75 22                	jne    b125 <_ZN5alloc7raw_vec19RawVec$LT$T$C$A$GT$11allocate_in17h8022d70d6ffca361E+0x225>
    b103:	eb 00                	jmp    b105 <_ZN5alloc7raw_vec19RawVec$LT$T$C$A$GT$11allocate_in17h8022d70d6ffca361E+0x205>
    b105:	eb 67                	jmp    b16e <_ZN5alloc7raw_vec19RawVec$LT$T$C$A$GT$11allocate_in17h8022d70d6ffca361E+0x26e>
    b107:	48 8b 44 24 50       	mov    0x50(%rsp),%rax
    b10c:	48 8b 4c 24 58       	mov    0x58(%rsp),%rcx
    b111:	48 89 8c 24 e8 00 00 	mov    %rcx,0xe8(%rsp)
    b118:	00 
    b119:	48 89 84 24 f0 00 00 	mov    %rax,0xf0(%rsp)
    b120:	00 
    b121:	eb cd                	jmp    b0f0 <_ZN5alloc7raw_vec19RawVec$LT$T$C$A$GT$11allocate_in17h8022d70d6ffca361E+0x1f0>
    b123:	0f 0b                	ud2    
    b125:	48 8b bc 24 e8 00 00 	mov    0xe8(%rsp),%rdi
    b12c:	00 
    b12d:	48 89 7c 24 28       	mov    %rdi,0x28(%rsp)
    b132:	48 8b b4 24 f0 00 00 	mov    0xf0(%rsp),%rsi
    b139:	00 
    b13a:	48 89 74 24 30       	mov    %rsi,0x30(%rsp)
    b13f:	48 89 bc 24 28 01 00 	mov    %rdi,0x128(%rsp)
    b146:	00 
    b147:	48 89 b4 24 30 01 00 	mov    %rsi,0x130(%rsp)
    b14e:	00 
    b14f:	48 89 bc 24 38 01 00 	mov    %rdi,0x138(%rsp)
    b156:	00 
    b157:	48 89 b4 24 40 01 00 	mov    %rsi,0x140(%rsp)
    b15e:	00 
    b15f:	e8 9c 10 00 00       	callq  c200 <_ZN4core3ptr8non_null16NonNull$LT$T$GT$4cast17hd501d5f8da8fdf1cE>
    b164:	48 89 c1             	mov    %rax,%rcx
    b167:	48 89 4c 24 38       	mov    %rcx,0x38(%rsp)
    b16c:	eb 1b                	jmp    b189 <_ZN5alloc7raw_vec19RawVec$LT$T$C$A$GT$11allocate_in17h8022d70d6ffca361E+0x289>
    b16e:	48 8b bc 24 b0 00 00 	mov    0xb0(%rsp),%rdi
    b175:	00 
    b176:	48 8b b4 24 b8 00 00 	mov    0xb8(%rsp),%rsi
    b17d:	00 
    b17e:	48 8d 05 fb eb ff ff 	lea    -0x1405(%rip),%rax        # 9d80 <_ZN5alloc5alloc18handle_alloc_error17hcd24ea096104b31cE>
    b185:	ff d0                	callq  *%rax
    b187:	0f 0b                	ud2    
    b189:	48 8b 7c 24 38       	mov    0x38(%rsp),%rdi
    b18e:	e8 cd 10 00 00       	callq  c260 <_ZN4core3ptr8non_null16NonNull$LT$T$GT$6as_ptr17hfc53cf0a23f48d9fE>
    b193:	48 89 c1             	mov    %rax,%rcx
    b196:	48 89 4c 24 20       	mov    %rcx,0x20(%rsp)
    b19b:	eb 00                	jmp    b19d <_ZN5alloc7raw_vec19RawVec$LT$T$C$A$GT$11allocate_in17h8022d70d6ffca361E+0x29d>
    b19d:	48 8b 7c 24 20       	mov    0x20(%rsp),%rdi
    b1a2:	e8 f9 04 00 00       	callq  b6a0 <_ZN4core3ptr6unique15Unique$LT$T$GT$13new_unchecked17ha1325b2bb546f9feE>
    b1a7:	48 89 c1             	mov    %rax,%rcx
    b1aa:	48 89 4c 24 18       	mov    %rcx,0x18(%rsp)
    b1af:	eb 00                	jmp    b1b1 <_ZN5alloc7raw_vec19RawVec$LT$T$C$A$GT$11allocate_in17h8022d70d6ffca361E+0x2b1>
    b1b1:	48 8b 74 24 30       	mov    0x30(%rsp),%rsi
    b1b6:	48 8b 7c 24 28       	mov    0x28(%rsp),%rdi
    b1bb:	e8 10 11 00 00       	callq  c2d0 <_ZN4core3ptr8non_null26NonNull$LT$$u5b$T$u5d$$GT$3len17hcad5b2c9502f4fc0E>
    b1c0:	48 89 c1             	mov    %rax,%rcx
    b1c3:	48 89 4c 24 10       	mov    %rcx,0x10(%rsp)
    b1c8:	eb 00                	jmp    b1ca <_ZN5alloc7raw_vec19RawVec$LT$T$C$A$GT$11allocate_in17h8022d70d6ffca361E+0x2ca>
    b1ca:	48 8b 7c 24 10       	mov    0x10(%rsp),%rdi
    b1cf:	e8 dc 01 00 00       	callq  b3b0 <_ZN5alloc7raw_vec19RawVec$LT$T$C$A$GT$19capacity_from_bytes17h4b9a31ffc85fe10bE>
    b1d4:	48 89 c1             	mov    %rax,%rcx
    b1d7:	48 89 4c 24 08       	mov    %rcx,0x8(%rsp)
    b1dc:	eb 00                	jmp    b1de <_ZN5alloc7raw_vec19RawVec$LT$T$C$A$GT$11allocate_in17h8022d70d6ffca361E+0x2de>
    b1de:	48 8b 44 24 08       	mov    0x8(%rsp),%rax
    b1e3:	48 8b 4c 24 18       	mov    0x18(%rsp),%rcx
    b1e8:	c6 84 24 ff 00 00 00 	movb   $0x0,0xff(%rsp)
    b1ef:	00 
    b1f0:	48 89 8c 24 a0 00 00 	mov    %rcx,0xa0(%rsp)
    b1f7:	00 
    b1f8:	48 89 84 24 a8 00 00 	mov    %rax,0xa8(%rsp)
    b1ff:	00 
    b200:	48 8b 84 24 a0 00 00 	mov    0xa0(%rsp),%rax
    b207:	00 
    b208:	48 8b 94 24 a8 00 00 	mov    0xa8(%rsp),%rdx
    b20f:	00 
    b210:	48 81 c4 48 01 00 00 	add    $0x148,%rsp
    b217:	c3                   	retq   
    b218:	48 8b 44 24 78       	mov    0x78(%rsp),%rax
    b21d:	48 8b 8c 24 80 00 00 	mov    0x80(%rsp),%rcx
    b224:	00 
    b225:	48 89 8c 24 a0 00 00 	mov    %rcx,0xa0(%rsp)
    b22c:	00 
    b22d:	48 89 84 24 a8 00 00 	mov    %rax,0xa8(%rsp)
    b234:	00 
    b235:	eb c9                	jmp    b200 <_ZN5alloc7raw_vec19RawVec$LT$T$C$A$GT$11allocate_in17h8022d70d6ffca361E+0x300>
    b237:	48 8b bc 24 08 01 00 	mov    0x108(%rsp),%rdi
    b23e:	00 
    b23f:	e8 d4 cd ff ff       	callq  8018 <_init+0x60>
    b244:	0f 0b                	ud2    
    b246:	eb ef                	jmp    b237 <_ZN5alloc7raw_vec19RawVec$LT$T$C$A$GT$11allocate_in17h8022d70d6ffca361E+0x337>
    b248:	0f 1f 84 00 00 00 00 	nopl   0x0(%rax,%rax,1)
    b24f:	00 

000000000000b250 <_ZN5alloc7raw_vec19RawVec$LT$T$C$A$GT$14current_memory17h3236053c598e70b8E>:
    b250:	48 81 ec 98 00 00 00 	sub    $0x98,%rsp
    b257:	48 89 74 24 30       	mov    %rsi,0x30(%rsp)
    b25c:	48 89 7c 24 38       	mov    %rdi,0x38(%rsp)
    b261:	48 89 7c 24 40       	mov    %rdi,0x40(%rsp)
    b266:	48 89 74 24 68       	mov    %rsi,0x68(%rsp)
    b26b:	b8 01 00 00 00       	mov    $0x1,%eax
    b270:	48 83 f8 00          	cmp    $0x0,%rax
    b274:	75 07                	jne    b27d <_ZN5alloc7raw_vec19RawVec$LT$T$C$A$GT$14current_memory17h3236053c598e70b8E+0x2d>
    b276:	c6 44 24 4f 01       	movb   $0x1,0x4f(%rsp)
    b27b:	eb 13                	jmp    b290 <_ZN5alloc7raw_vec19RawVec$LT$T$C$A$GT$14current_memory17h3236053c598e70b8E+0x40>
    b27d:	48 8b 44 24 30       	mov    0x30(%rsp),%rax
    b282:	48 83 78 08 00       	cmpq   $0x0,0x8(%rax)
    b287:	0f 94 c0             	sete   %al
    b28a:	24 01                	and    $0x1,%al
    b28c:	88 44 24 4f          	mov    %al,0x4f(%rsp)
    b290:	f6 44 24 4f 01       	testb  $0x1,0x4f(%rsp)
    b295:	75 20                	jne    b2b7 <_ZN5alloc7raw_vec19RawVec$LT$T$C$A$GT$14current_memory17h3236053c598e70b8E+0x67>
    b297:	48 c7 84 24 90 00 00 	movq   $0x1,0x90(%rsp)
    b29e:	00 01 00 00 00 
    b2a3:	48 8b 84 24 90 00 00 	mov    0x90(%rsp),%rax
    b2aa:	00 
    b2ab:	48 89 44 24 28       	mov    %rax,0x28(%rsp)
    b2b0:	48 89 44 24 70       	mov    %rax,0x70(%rsp)
    b2b5:	eb 19                	jmp    b2d0 <_ZN5alloc7raw_vec19RawVec$LT$T$C$A$GT$14current_memory17h3236053c598e70b8E+0x80>
    b2b7:	48 8b 44 24 38       	mov    0x38(%rsp),%rax
    b2bc:	48 c7 00 00 00 00 00 	movq   $0x0,(%rax)
    b2c3:	48 8b 44 24 40       	mov    0x40(%rsp),%rax
    b2c8:	48 81 c4 98 00 00 00 	add    $0x98,%rsp
    b2cf:	c3                   	retq   
    b2d0:	eb 00                	jmp    b2d2 <_ZN5alloc7raw_vec19RawVec$LT$T$C$A$GT$14current_memory17h3236053c598e70b8E+0x82>
    b2d2:	48 8b 74 24 28       	mov    0x28(%rsp),%rsi
    b2d7:	48 8b 44 24 30       	mov    0x30(%rsp),%rax
    b2dc:	48 8b 78 08          	mov    0x8(%rax),%rdi
    b2e0:	48 c1 e7 00          	shl    $0x0,%rdi
    b2e4:	48 89 7c 24 78       	mov    %rdi,0x78(%rsp)
    b2e9:	e8 d2 f7 ff ff       	callq  aac0 <_ZN4core5alloc6layout6Layout25from_size_align_unchecked17h64793f866f2c745aE>
    b2ee:	48 89 44 24 18       	mov    %rax,0x18(%rsp)
    b2f3:	48 89 54 24 20       	mov    %rdx,0x20(%rsp)
    b2f8:	48 89 84 24 80 00 00 	mov    %rax,0x80(%rsp)
    b2ff:	00 
    b300:	48 89 94 24 88 00 00 	mov    %rdx,0x88(%rsp)
    b307:	00 
    b308:	48 8b 44 24 30       	mov    0x30(%rsp),%rax
    b30d:	48 8b 38             	mov    (%rax),%rdi
    b310:	e8 ab 03 00 00       	callq  b6c0 <_ZN4core3ptr6unique15Unique$LT$T$GT$4cast17h3f79b6d406b10d9bE>
    b315:	48 89 44 24 10       	mov    %rax,0x10(%rsp)
    b31a:	48 8b 7c 24 10       	mov    0x10(%rsp),%rdi
    b31f:	e8 0c 04 00 00       	callq  b730 <_ZN50_$LT$T$u20$as$u20$core..convert..Into$LT$U$GT$$GT$4into17h3795837420d7b8dfE>
    b324:	48 89 44 24 08       	mov    %rax,0x8(%rsp)
    b329:	48 8b 44 24 38       	mov    0x38(%rsp),%rax
    b32e:	48 8b 4c 24 20       	mov    0x20(%rsp),%rcx
    b333:	48 8b 54 24 18       	mov    0x18(%rsp),%rdx
    b338:	48 8b 74 24 08       	mov    0x8(%rsp),%rsi
    b33d:	48 89 74 24 50       	mov    %rsi,0x50(%rsp)
    b342:	48 89 54 24 58       	mov    %rdx,0x58(%rsp)
    b347:	48 89 4c 24 60       	mov    %rcx,0x60(%rsp)
    b34c:	48 8b 4c 24 50       	mov    0x50(%rsp),%rcx
    b351:	48 89 08             	mov    %rcx,(%rax)
    b354:	48 8b 4c 24 58       	mov    0x58(%rsp),%rcx
    b359:	48 89 48 08          	mov    %rcx,0x8(%rax)
    b35d:	48 8b 4c 24 60       	mov    0x60(%rsp),%rcx
    b362:	48 89 48 10          	mov    %rcx,0x10(%rax)
    b366:	e9 58 ff ff ff       	jmpq   b2c3 <_ZN5alloc7raw_vec19RawVec$LT$T$C$A$GT$14current_memory17h3236053c598e70b8E+0x73>
    b36b:	0f 1f 44 00 00       	nopl   0x0(%rax,%rax,1)

000000000000b370 <_ZN5alloc7raw_vec19RawVec$LT$T$C$A$GT$16with_capacity_in17h370c857315a03ad4E>:
    b370:	48 83 ec 28          	sub    $0x28,%rsp
    b374:	48 89 7c 24 18       	mov    %rdi,0x18(%rsp)
    b379:	c6 44 24 17 00       	movb   $0x0,0x17(%rsp)
    b37e:	8a 44 24 17          	mov    0x17(%rsp),%al
    b382:	24 01                	and    $0x1,%al
    b384:	0f b6 f0             	movzbl %al,%esi
    b387:	e8 74 fb ff ff       	callq  af00 <_ZN5alloc7raw_vec19RawVec$LT$T$C$A$GT$11allocate_in17h8022d70d6ffca361E>
    b38c:	48 89 04 24          	mov    %rax,(%rsp)
    b390:	48 89 54 24 08       	mov    %rdx,0x8(%rsp)
    b395:	48 8b 54 24 08       	mov    0x8(%rsp),%rdx
    b39a:	48 8b 04 24          	mov    (%rsp),%rax
    b39e:	48 83 c4 28          	add    $0x28,%rsp
    b3a2:	c3                   	retq   
    b3a3:	66 2e 0f 1f 84 00 00 	nopw   %cs:0x0(%rax,%rax,1)
    b3aa:	00 00 00 
    b3ad:	0f 1f 00             	nopl   (%rax)

000000000000b3b0 <_ZN5alloc7raw_vec19RawVec$LT$T$C$A$GT$19capacity_from_bytes17h4b9a31ffc85fe10bE>:
    b3b0:	48 83 ec 18          	sub    $0x18,%rsp
    b3b4:	48 89 7c 24 08       	mov    %rdi,0x8(%rsp)
    b3b9:	48 89 7c 24 10       	mov    %rdi,0x10(%rsp)
    b3be:	b8 01 00 00 00       	mov    $0x1,%eax
    b3c3:	48 83 f8 00          	cmp    $0x0,%rax
    b3c7:	0f 94 c0             	sete   %al
    b3ca:	a8 01                	test   $0x1,%al
    b3cc:	75 0e                	jne    b3dc <_ZN5alloc7raw_vec19RawVec$LT$T$C$A$GT$19capacity_from_bytes17h4b9a31ffc85fe10bE+0x2c>
    b3ce:	48 8b 44 24 08       	mov    0x8(%rsp),%rax
    b3d3:	48 c1 e8 00          	shr    $0x0,%rax
    b3d7:	48 83 c4 18          	add    $0x18,%rsp
    b3db:	c3                   	retq   
    b3dc:	48 8d 3d 1d d9 02 00 	lea    0x2d91d(%rip),%rdi        # 38d00 <str.0>
    b3e3:	48 8d 15 fe a0 23 00 	lea    0x23a0fe(%rip),%rdx        # 2454e8 <__JCR_END__+0x20>
    b3ea:	48 8d 05 af ea ff ff 	lea    -0x1551(%rip),%rax        # 9ea0 <_ZN4core9panicking5panic17h1a48d878ff3dcd40E>
    b3f1:	be 19 00 00 00       	mov    $0x19,%esi
    b3f6:	ff d0                	callq  *%rax
    b3f8:	0f 0b                	ud2    
    b3fa:	66 0f 1f 44 00 00    	nopw   0x0(%rax,%rax,1)

000000000000b400 <_ZN5alloc7raw_vec19RawVec$LT$T$C$A$GT$3ptr17hcd2d5efd3165dc33E>:
    b400:	48 83 ec 18          	sub    $0x18,%rsp
    b404:	48 89 7c 24 10       	mov    %rdi,0x10(%rsp)
    b409:	48 8b 3f             	mov    (%rdi),%rdi
    b40c:	e8 df 02 00 00       	callq  b6f0 <_ZN4core3ptr6unique15Unique$LT$T$GT$6as_ptr17h5823c3bda13f1c46E>
    b411:	48 89 44 24 08       	mov    %rax,0x8(%rsp)
    b416:	48 8b 44 24 08       	mov    0x8(%rsp),%rax
    b41b:	48 83 c4 18          	add    $0x18,%rsp
    b41f:	c3                   	retq   

000000000000b420 <_ZN5alloc7raw_vec19RawVec$LT$T$C$A$GT$6new_in17h93bd3bfc2b1ba6e6E>:
    b420:	48 83 ec 38          	sub    $0x38,%rsp
    b424:	e8 d7 02 00 00       	callq  b700 <_ZN4core3ptr6unique15Unique$LT$T$GT$8dangling17hb8e87428bb134723E>
    b429:	48 89 c1             	mov    %rax,%rcx
    b42c:	48 89 4c 24 08       	mov    %rcx,0x8(%rsp)
    b431:	eb 00                	jmp    b433 <_ZN5alloc7raw_vec19RawVec$LT$T$C$A$GT$6new_in17h93bd3bfc2b1ba6e6E+0x13>
    b433:	48 8b 44 24 08       	mov    0x8(%rsp),%rax
    b438:	48 89 44 24 10       	mov    %rax,0x10(%rsp)
    b43d:	48 c7 44 24 18 00 00 	movq   $0x0,0x18(%rsp)
    b444:	00 00 
    b446:	48 8b 44 24 10       	mov    0x10(%rsp),%rax
    b44b:	48 8b 54 24 18       	mov    0x18(%rsp),%rdx
    b450:	48 83 c4 38          	add    $0x38,%rsp
    b454:	c3                   	retq   
    b455:	eb 10                	jmp    b467 <_ZN5alloc7raw_vec19RawVec$LT$T$C$A$GT$6new_in17h93bd3bfc2b1ba6e6E+0x47>
    b457:	48 89 c1             	mov    %rax,%rcx
    b45a:	89 d0                	mov    %edx,%eax
    b45c:	48 89 4c 24 28       	mov    %rcx,0x28(%rsp)
    b461:	89 44 24 30          	mov    %eax,0x30(%rsp)
    b465:	eb ee                	jmp    b455 <_ZN5alloc7raw_vec19RawVec$LT$T$C$A$GT$6new_in17h93bd3bfc2b1ba6e6E+0x35>
    b467:	48 8b 7c 24 28       	mov    0x28(%rsp),%rdi
    b46c:	e8 a7 cb ff ff       	callq  8018 <_init+0x60>
    b471:	0f 0b                	ud2    
    b473:	66 2e 0f 1f 84 00 00 	nopw   %cs:0x0(%rax,%rax,1)
    b47a:	00 00 00 
    b47d:	0f 1f 00             	nopl   (%rax)

000000000000b480 <_ZN77_$LT$alloc..raw_vec..RawVec$LT$T$C$A$GT$$u20$as$u20$core..ops..drop..Drop$GT$4drop17h4d6eb9c7217f0611E>:
    b480:	48 83 ec 48          	sub    $0x48,%rsp
    b484:	48 89 fe             	mov    %rdi,%rsi
    b487:	48 89 34 24          	mov    %rsi,(%rsp)
    b48b:	48 89 74 24 28       	mov    %rsi,0x28(%rsp)
    b490:	48 8d 7c 24 10       	lea    0x10(%rsp),%rdi
    b495:	e8 b6 fd ff ff       	callq  b250 <_ZN5alloc7raw_vec19RawVec$LT$T$C$A$GT$14current_memory17h3236053c598e70b8E>
    b49a:	b8 01 00 00 00       	mov    $0x1,%eax
    b49f:	31 c9                	xor    %ecx,%ecx
    b4a1:	48 83 7c 24 10 00    	cmpq   $0x0,0x10(%rsp)
    b4a7:	48 0f 44 c1          	cmove  %rcx,%rax
    b4ab:	48 83 f8 01          	cmp    $0x1,%rax
    b4af:	75 29                	jne    b4da <_ZN77_$LT$alloc..raw_vec..RawVec$LT$T$C$A$GT$$u20$as$u20$core..ops..drop..Drop$GT$4drop17h4d6eb9c7217f0611E+0x5a>
    b4b1:	48 8b 3c 24          	mov    (%rsp),%rdi
    b4b5:	48 8b 74 24 10       	mov    0x10(%rsp),%rsi
    b4ba:	48 89 74 24 30       	mov    %rsi,0x30(%rsp)
    b4bf:	48 8b 54 24 18       	mov    0x18(%rsp),%rdx
    b4c4:	48 8b 4c 24 20       	mov    0x20(%rsp),%rcx
    b4c9:	48 89 54 24 38       	mov    %rdx,0x38(%rsp)
    b4ce:	48 89 4c 24 40       	mov    %rcx,0x40(%rsp)
    b4d3:	e8 18 09 00 00       	callq  bdf0 <_ZN63_$LT$alloc..alloc..Global$u20$as$u20$core..alloc..Allocator$GT$10deallocate17h9a3f9a2b8da555a8E>
    b4d8:	eb 07                	jmp    b4e1 <_ZN77_$LT$alloc..raw_vec..RawVec$LT$T$C$A$GT$$u20$as$u20$core..ops..drop..Drop$GT$4drop17h4d6eb9c7217f0611E+0x61>
    b4da:	eb 00                	jmp    b4dc <_ZN77_$LT$alloc..raw_vec..RawVec$LT$T$C$A$GT$$u20$as$u20$core..ops..drop..Drop$GT$4drop17h4d6eb9c7217f0611E+0x5c>
    b4dc:	48 83 c4 48          	add    $0x48,%rsp
    b4e0:	c3                   	retq   
    b4e1:	eb f9                	jmp    b4dc <_ZN77_$LT$alloc..raw_vec..RawVec$LT$T$C$A$GT$$u20$as$u20$core..ops..drop..Drop$GT$4drop17h4d6eb9c7217f0611E+0x5c>
    b4e3:	66 2e 0f 1f 84 00 00 	nopw   %cs:0x0(%rax,%rax,1)
    b4ea:	00 00 00 
    b4ed:	0f 1f 00             	nopl   (%rax)

000000000000b4f0 <_ZN4core3ptr24slice_from_raw_parts_mut17h0404da878e4c9d2cE>:
    b4f0:	48 83 ec 38          	sub    $0x38,%rsp
    b4f4:	48 89 74 24 10       	mov    %rsi,0x10(%rsp)
    b4f9:	48 89 7c 24 20       	mov    %rdi,0x20(%rsp)
    b4fe:	48 89 74 24 28       	mov    %rsi,0x28(%rsp)
    b503:	48 89 7c 24 30       	mov    %rdi,0x30(%rsp)
    b508:	48 89 7c 24 18       	mov    %rdi,0x18(%rsp)
    b50d:	48 8b 74 24 10       	mov    0x10(%rsp),%rsi
    b512:	48 8b 7c 24 18       	mov    0x18(%rsp),%rdi
    b517:	e8 04 06 00 00       	callq  bb20 <_ZN4core3ptr8metadata18from_raw_parts_mut17h4c3fabd84b3f399fE>
    b51c:	48 89 04 24          	mov    %rax,(%rsp)
    b520:	48 89 54 24 08       	mov    %rdx,0x8(%rsp)
    b525:	48 8b 54 24 08       	mov    0x8(%rsp),%rdx
    b52a:	48 8b 04 24          	mov    (%rsp),%rax
    b52e:	48 83 c4 38          	add    $0x38,%rsp
    b532:	c3                   	retq   
    b533:	66 2e 0f 1f 84 00 00 	nopw   %cs:0x0(%rax,%rax,1)
    b53a:	00 00 00 
    b53d:	0f 1f 00             	nopl   (%rax)

000000000000b540 <_ZN4core3ptr9const_ptr33_$LT$impl$u20$$BP$const$u20$T$GT$22copy_to_nonoverlapping17h6da35565482990d9E>:
    b540:	48 83 ec 18          	sub    $0x18,%rsp
    b544:	48 89 3c 24          	mov    %rdi,(%rsp)
    b548:	48 89 74 24 08       	mov    %rsi,0x8(%rsp)
    b54d:	48 89 54 24 10       	mov    %rdx,0x10(%rsp)
    b552:	e8 99 11 00 00       	callq  c6f0 <_ZN4core10intrinsics19copy_nonoverlapping17h66da2a96ea25140dE>
    b557:	48 83 c4 18          	add    $0x18,%rsp
    b55b:	c3                   	retq   
    b55c:	0f 1f 40 00          	nopl   0x0(%rax)

000000000000b560 <_ZN4main4main17hd37b685de13e672bE>:
    b560:	48 81 ec 98 00 00 00 	sub    $0x98,%rsp
    b567:	48 8d 7c 24 18       	lea    0x18(%rsp),%rdi
    b56c:	48 8d 35 a6 d7 02 00 	lea    0x2d7a6(%rip),%rsi        # 38d19 <str.0+0x19>
    b573:	ba 05 00 00 00       	mov    $0x5,%edx
    b578:	e8 43 12 00 00       	callq  c7c0 <_ZN76_$LT$alloc..string..String$u20$as$u20$core..convert..From$LT$$RF$str$GT$$GT$4from17h4ecd9d8f89033459E>
    b57d:	48 8d 7c 24 18       	lea    0x18(%rsp),%rdi
    b582:	e8 d9 00 00 00       	callq  b660 <_ZN4main16calculate_length17h5312abdc3e816e09E>
    b587:	48 89 c1             	mov    %rax,%rcx
    b58a:	48 89 4c 24 10       	mov    %rcx,0x10(%rsp)
    b58f:	eb 00                	jmp    b591 <_ZN4main4main17hd37b685de13e672bE+0x31>
    b591:	48 8b 44 24 10       	mov    0x10(%rsp),%rax
    b596:	48 89 44 24 30       	mov    %rax,0x30(%rsp)
    b59b:	48 8d 44 24 30       	lea    0x30(%rsp),%rax
    b5a0:	48 89 44 24 78       	mov    %rax,0x78(%rsp)
    b5a5:	48 8b 7c 24 78       	mov    0x78(%rsp),%rdi
    b5aa:	48 89 bc 24 90 00 00 	mov    %rdi,0x90(%rsp)
    b5b1:	00 
    b5b2:	48 8d 35 37 cc 02 00 	lea    0x2cc37(%rip),%rsi        # 381f0 <_ZN4core3fmt3num3imp52_$LT$impl$u20$core..fmt..Display$u20$for$u20$u64$GT$3fmt17hbb166475dc51a6fcE>
    b5b9:	e8 b2 04 00 00       	callq  ba70 <_ZN4core3fmt10ArgumentV13new17h607f15b00cdc437fE>
    b5be:	48 89 c1             	mov    %rax,%rcx
    b5c1:	48 89 d6             	mov    %rdx,%rsi
    b5c4:	48 89 34 24          	mov    %rsi,(%rsp)
    b5c8:	48 89 4c 24 08       	mov    %rcx,0x8(%rsp)
    b5cd:	eb 22                	jmp    b5f1 <_ZN4main4main17hd37b685de13e672bE+0x91>
    b5cf:	48 8d 7c 24 18       	lea    0x18(%rsp),%rdi
    b5d4:	e8 07 02 00 00       	callq  b7e0 <_ZN4core3ptr42drop_in_place$LT$alloc..string..String$GT$17h75e25b87d126e405E>
    b5d9:	eb 68                	jmp    b643 <_ZN4main4main17hd37b685de13e672bE+0xe3>
    b5db:	48 89 c1             	mov    %rax,%rcx
    b5de:	89 d0                	mov    %edx,%eax
    b5e0:	48 89 8c 24 80 00 00 	mov    %rcx,0x80(%rsp)
    b5e7:	00 
    b5e8:	89 84 24 88 00 00 00 	mov    %eax,0x88(%rsp)
    b5ef:	eb de                	jmp    b5cf <_ZN4main4main17hd37b685de13e672bE+0x6f>
    b5f1:	48 8b 0c 24          	mov    (%rsp),%rcx
    b5f5:	48 8b 54 24 08       	mov    0x8(%rsp),%rdx
    b5fa:	48 89 54 24 68       	mov    %rdx,0x68(%rsp)
    b5ff:	48 89 4c 24 70       	mov    %rcx,0x70(%rsp)
    b604:	48 8d 35 f5 9e 23 00 	lea    0x239ef5(%rip),%rsi        # 245500 <__JCR_END__+0x38>
    b60b:	48 8d 7c 24 38       	lea    0x38(%rsp),%rdi
    b610:	ba 02 00 00 00       	mov    $0x2,%edx
    b615:	48 8d 4c 24 68       	lea    0x68(%rsp),%rcx
    b61a:	41 b8 01 00 00 00    	mov    $0x1,%r8d
    b620:	e8 ab 04 00 00       	callq  bad0 <_ZN4core3fmt9Arguments6new_v117h2bc090dc88c4b213E>
    b625:	eb 00                	jmp    b627 <_ZN4main4main17hd37b685de13e672bE+0xc7>
    b627:	48 8d 0d 72 da 00 00 	lea    0xda72(%rip),%rcx        # 190a0 <_ZN3std2io5stdio6_print17h6c2feda598ad918dE>
    b62e:	48 8d 7c 24 38       	lea    0x38(%rsp),%rdi
    b633:	ff d1                	callq  *%rcx
    b635:	eb 00                	jmp    b637 <_ZN4main4main17hd37b685de13e672bE+0xd7>
    b637:	48 8d 7c 24 18       	lea    0x18(%rsp),%rdi
    b63c:	e8 9f 01 00 00       	callq  b7e0 <_ZN4core3ptr42drop_in_place$LT$alloc..string..String$GT$17h75e25b87d126e405E>
    b641:	eb 0f                	jmp    b652 <_ZN4main4main17hd37b685de13e672bE+0xf2>
    b643:	48 8b bc 24 80 00 00 	mov    0x80(%rsp),%rdi
    b64a:	00 
    b64b:	e8 c8 c9 ff ff       	callq  8018 <_init+0x60>
    b650:	0f 0b                	ud2    
    b652:	48 81 c4 98 00 00 00 	add    $0x98,%rsp
    b659:	c3                   	retq   
    b65a:	66 0f 1f 44 00 00    	nopw   0x0(%rax,%rax,1)

000000000000b660 <_ZN4main16calculate_length17h5312abdc3e816e09E>:
    b660:	48 83 ec 18          	sub    $0x18,%rsp
    b664:	48 89 7c 24 10       	mov    %rdi,0x10(%rsp)
    b669:	e8 32 11 00 00       	callq  c7a0 <_ZN5alloc6string6String3len17h9c04441b2e20c350E>
    b66e:	48 89 44 24 08       	mov    %rax,0x8(%rsp)
    b673:	48 8b 44 24 08       	mov    0x8(%rsp),%rax
    b678:	48 83 c4 18          	add    $0x18,%rsp
    b67c:	c3                   	retq   
    b67d:	0f 1f 00             	nopl   (%rax)

000000000000b680 <main>:
    b680:	50                   	push   %rax
    b681:	48 89 f2             	mov    %rsi,%rdx
    b684:	48 8d 05 54 21 03 00 	lea    0x32154(%rip),%rax        # 3d7df <__rustc_debug_gdb_scripts_section__>
    b68b:	8a 00                	mov    (%rax),%al
    b68d:	48 63 f7             	movslq %edi,%rsi
    b690:	48 8d 3d c9 fe ff ff 	lea    -0x137(%rip),%rdi        # b560 <_ZN4main4main17hd37b685de13e672bE>
    b697:	e8 f4 0d 00 00       	callq  c490 <_ZN3std2rt10lang_start17hc1e49051763d614fE>
    b69c:	59                   	pop    %rcx
    b69d:	c3                   	retq   
    b69e:	66 90                	xchg   %ax,%ax

000000000000b6a0 <_ZN4core3ptr6unique15Unique$LT$T$GT$13new_unchecked17ha1325b2bb546f9feE>:
    b6a0:	48 83 ec 10          	sub    $0x10,%rsp
    b6a4:	48 89 7c 24 08       	mov    %rdi,0x8(%rsp)
    b6a9:	48 89 3c 24          	mov    %rdi,(%rsp)
    b6ad:	48 8b 04 24          	mov    (%rsp),%rax
    b6b1:	48 83 c4 10          	add    $0x10,%rsp
    b6b5:	c3                   	retq   
    b6b6:	66 2e 0f 1f 84 00 00 	nopw   %cs:0x0(%rax,%rax,1)
    b6bd:	00 00 00 

000000000000b6c0 <_ZN4core3ptr6unique15Unique$LT$T$GT$4cast17h3f79b6d406b10d9bE>:
    b6c0:	48 83 ec 18          	sub    $0x18,%rsp
    b6c4:	48 89 7c 24 10       	mov    %rdi,0x10(%rsp)
    b6c9:	e8 22 00 00 00       	callq  b6f0 <_ZN4core3ptr6unique15Unique$LT$T$GT$6as_ptr17h5823c3bda13f1c46E>
    b6ce:	48 89 44 24 08       	mov    %rax,0x8(%rsp)
    b6d3:	48 8b 7c 24 08       	mov    0x8(%rsp),%rdi
    b6d8:	e8 c3 ff ff ff       	callq  b6a0 <_ZN4core3ptr6unique15Unique$LT$T$GT$13new_unchecked17ha1325b2bb546f9feE>
    b6dd:	48 89 04 24          	mov    %rax,(%rsp)
    b6e1:	48 8b 04 24          	mov    (%rsp),%rax
    b6e5:	48 83 c4 18          	add    $0x18,%rsp
    b6e9:	c3                   	retq   
    b6ea:	66 0f 1f 44 00 00    	nopw   0x0(%rax,%rax,1)

000000000000b6f0 <_ZN4core3ptr6unique15Unique$LT$T$GT$6as_ptr17h5823c3bda13f1c46E>:
    b6f0:	50                   	push   %rax
    b6f1:	48 89 f8             	mov    %rdi,%rax
    b6f4:	48 89 04 24          	mov    %rax,(%rsp)
    b6f8:	59                   	pop    %rcx
    b6f9:	c3                   	retq   
    b6fa:	66 0f 1f 44 00 00    	nopw   0x0(%rax,%rax,1)

000000000000b700 <_ZN4core3ptr6unique15Unique$LT$T$GT$8dangling17hb8e87428bb134723E>:
    b700:	48 83 ec 18          	sub    $0x18,%rsp
    b704:	48 c7 44 24 10 01 00 	movq   $0x1,0x10(%rsp)
    b70b:	00 00 
    b70d:	48 8b 44 24 10       	mov    0x10(%rsp),%rax
    b712:	48 89 44 24 08       	mov    %rax,0x8(%rsp)
    b717:	48 8b 7c 24 08       	mov    0x8(%rsp),%rdi
    b71c:	e8 7f ff ff ff       	callq  b6a0 <_ZN4core3ptr6unique15Unique$LT$T$GT$13new_unchecked17ha1325b2bb546f9feE>
    b721:	48 89 04 24          	mov    %rax,(%rsp)
    b725:	48 8b 04 24          	mov    (%rsp),%rax
    b729:	48 83 c4 18          	add    $0x18,%rsp
    b72d:	c3                   	retq   
    b72e:	66 90                	xchg   %ax,%ax

000000000000b730 <_ZN50_$LT$T$u20$as$u20$core..convert..Into$LT$U$GT$$GT$4into17h3795837420d7b8dfE>:
    b730:	48 83 ec 18          	sub    $0x18,%rsp
    b734:	48 89 7c 24 10       	mov    %rdi,0x10(%rsp)
    b739:	e8 f2 09 00 00       	callq  c130 <_ZN119_$LT$core..ptr..non_null..NonNull$LT$T$GT$$u20$as$u20$core..convert..From$LT$core..ptr..unique..Unique$LT$T$GT$$GT$$GT$4from17hfb895b0889dc1b37E>
    b73e:	48 89 44 24 08       	mov    %rax,0x8(%rsp)
    b743:	48 8b 44 24 08       	mov    0x8(%rsp),%rax
    b748:	48 83 c4 18          	add    $0x18,%rsp
    b74c:	c3                   	retq   
    b74d:	0f 1f 00             	nopl   (%rax)

000000000000b750 <_ZN3std3sys4unix7process14process_common8ExitCode6as_i3217ha9b85a1e4622ab75E>:
    b750:	50                   	push   %rax
    b751:	48 89 3c 24          	mov    %rdi,(%rsp)
    b755:	0f b6 07             	movzbl (%rdi),%eax
    b758:	59                   	pop    %rcx
    b759:	c3                   	retq   
    b75a:	66 0f 1f 44 00 00    	nopw   0x0(%rax,%rax,1)

000000000000b760 <_ZN4core3ops8function6FnOnce40call_once$u7b$$u7b$vtable.shim$u7d$$u7d$17hfd6ed5e4d12d1241E>:
    b760:	48 83 ec 18          	sub    $0x18,%rsp
    b764:	48 89 7c 24 10       	mov    %rdi,0x10(%rsp)
    b769:	48 8b 3f             	mov    (%rdi),%rdi
    b76c:	e8 1f 00 00 00       	callq  b790 <_ZN4core3ops8function6FnOnce9call_once17ha5ccb13e3fe50244E>
    b771:	89 44 24 04          	mov    %eax,0x4(%rsp)
    b775:	8b 44 24 04          	mov    0x4(%rsp),%eax
    b779:	48 83 c4 18          	add    $0x18,%rsp
    b77d:	c3                   	retq   
    b77e:	66 90                	xchg   %ax,%ax

000000000000b780 <_ZN4core3ops8function6FnOnce9call_once17h79550a6f9720aab6E>:
    b780:	48 83 ec 18          	sub    $0x18,%rsp
    b784:	48 89 7c 24 10       	mov    %rdi,0x10(%rsp)
    b789:	ff d7                	callq  *%rdi
    b78b:	48 83 c4 18          	add    $0x18,%rsp
    b78f:	c3                   	retq   

000000000000b790 <_ZN4core3ops8function6FnOnce9call_once17ha5ccb13e3fe50244E>:
    b790:	48 83 ec 28          	sub    $0x28,%rsp
    b794:	48 89 7c 24 08       	mov    %rdi,0x8(%rsp)
    b799:	48 8d 7c 24 08       	lea    0x8(%rsp),%rdi
    b79e:	e8 2d 0d 00 00       	callq  c4d0 <_ZN3std2rt10lang_start28_$u7b$$u7b$closure$u7d$$u7d$17hc28ffbfba182ae1bE>
    b7a3:	89 c1                	mov    %eax,%ecx
    b7a5:	89 4c 24 04          	mov    %ecx,0x4(%rsp)
    b7a9:	eb 00                	jmp    b7ab <_ZN4core3ops8function6FnOnce9call_once17ha5ccb13e3fe50244E+0x1b>
    b7ab:	eb 1e                	jmp    b7cb <_ZN4core3ops8function6FnOnce9call_once17ha5ccb13e3fe50244E+0x3b>
    b7ad:	eb 10                	jmp    b7bf <_ZN4core3ops8function6FnOnce9call_once17ha5ccb13e3fe50244E+0x2f>
    b7af:	48 89 c1             	mov    %rax,%rcx
    b7b2:	89 d0                	mov    %edx,%eax
    b7b4:	48 89 4c 24 18       	mov    %rcx,0x18(%rsp)
    b7b9:	89 44 24 20          	mov    %eax,0x20(%rsp)
    b7bd:	eb ee                	jmp    b7ad <_ZN4core3ops8function6FnOnce9call_once17ha5ccb13e3fe50244E+0x1d>
    b7bf:	48 8b 7c 24 18       	mov    0x18(%rsp),%rdi
    b7c4:	e8 4f c8 ff ff       	callq  8018 <_init+0x60>
    b7c9:	0f 0b                	ud2    
    b7cb:	8b 44 24 04          	mov    0x4(%rsp),%eax
    b7cf:	48 83 c4 28          	add    $0x28,%rsp
    b7d3:	c3                   	retq   
    b7d4:	66 2e 0f 1f 84 00 00 	nopw   %cs:0x0(%rax,%rax,1)
    b7db:	00 00 00 
    b7de:	66 90                	xchg   %ax,%ax

000000000000b7e0 <_ZN4core3ptr42drop_in_place$LT$alloc..string..String$GT$17h75e25b87d126e405E>:
    b7e0:	50                   	push   %rax
    b7e1:	48 89 3c 24          	mov    %rdi,(%rsp)
    b7e5:	e8 06 00 00 00       	callq  b7f0 <_ZN4core3ptr46drop_in_place$LT$alloc..vec..Vec$LT$u8$GT$$GT$17hbaa1c050dffefbc1E>
    b7ea:	58                   	pop    %rax
    b7eb:	c3                   	retq   
    b7ec:	0f 1f 40 00          	nopl   0x0(%rax)

000000000000b7f0 <_ZN4core3ptr46drop_in_place$LT$alloc..vec..Vec$LT$u8$GT$$GT$17hbaa1c050dffefbc1E>:
    b7f0:	48 83 ec 28          	sub    $0x28,%rsp
    b7f4:	48 89 7c 24 08       	mov    %rdi,0x8(%rsp)
    b7f9:	48 89 7c 24 10       	mov    %rdi,0x10(%rsp)
    b7fe:	e8 7d 0e 00 00       	callq  c680 <_ZN70_$LT$alloc..vec..Vec$LT$T$C$A$GT$$u20$as$u20$core..ops..drop..Drop$GT$4drop17ha25b11394a87c7abE>
    b803:	eb 00                	jmp    b805 <_ZN4core3ptr46drop_in_place$LT$alloc..vec..Vec$LT$u8$GT$$GT$17hbaa1c050dffefbc1E+0x15>
    b805:	48 8b 7c 24 08       	mov    0x8(%rsp),%rdi
    b80a:	e8 31 00 00 00       	callq  b840 <_ZN4core3ptr53drop_in_place$LT$alloc..raw_vec..RawVec$LT$u8$GT$$GT$17h91d18fe670e844ceE>
    b80f:	eb 28                	jmp    b839 <_ZN4core3ptr46drop_in_place$LT$alloc..vec..Vec$LT$u8$GT$$GT$17hbaa1c050dffefbc1E+0x49>
    b811:	48 8b 7c 24 08       	mov    0x8(%rsp),%rdi
    b816:	e8 25 00 00 00       	callq  b840 <_ZN4core3ptr53drop_in_place$LT$alloc..raw_vec..RawVec$LT$u8$GT$$GT$17h91d18fe670e844ceE>
    b81b:	eb 10                	jmp    b82d <_ZN4core3ptr46drop_in_place$LT$alloc..vec..Vec$LT$u8$GT$$GT$17hbaa1c050dffefbc1E+0x3d>
    b81d:	48 89 c1             	mov    %rax,%rcx
    b820:	89 d0                	mov    %edx,%eax
    b822:	48 89 4c 24 18       	mov    %rcx,0x18(%rsp)
    b827:	89 44 24 20          	mov    %eax,0x20(%rsp)
    b82b:	eb e4                	jmp    b811 <_ZN4core3ptr46drop_in_place$LT$alloc..vec..Vec$LT$u8$GT$$GT$17hbaa1c050dffefbc1E+0x21>
    b82d:	48 8b 7c 24 18       	mov    0x18(%rsp),%rdi
    b832:	e8 e1 c7 ff ff       	callq  8018 <_init+0x60>
    b837:	0f 0b                	ud2    
    b839:	48 83 c4 28          	add    $0x28,%rsp
    b83d:	c3                   	retq   
    b83e:	66 90                	xchg   %ax,%ax

000000000000b840 <_ZN4core3ptr53drop_in_place$LT$alloc..raw_vec..RawVec$LT$u8$GT$$GT$17h91d18fe670e844ceE>:
    b840:	50                   	push   %rax
    b841:	48 89 3c 24          	mov    %rdi,(%rsp)
    b845:	e8 36 fc ff ff       	callq  b480 <_ZN77_$LT$alloc..raw_vec..RawVec$LT$T$C$A$GT$$u20$as$u20$core..ops..drop..Drop$GT$4drop17h4d6eb9c7217f0611E>
    b84a:	58                   	pop    %rax
    b84b:	c3                   	retq   
    b84c:	0f 1f 40 00          	nopl   0x0(%rax)

000000000000b850 <_ZN4core3ptr53drop_in_place$LT$core..alloc..layout..LayoutError$GT$17h35e83237ddf29ff7E>:
    b850:	50                   	push   %rax
    b851:	48 89 3c 24          	mov    %rdi,(%rsp)
    b855:	58                   	pop    %rax
    b856:	c3                   	retq   
    b857:	66 0f 1f 84 00 00 00 	nopw   0x0(%rax,%rax,1)
    b85e:	00 00 

000000000000b860 <_ZN4core3ptr85drop_in_place$LT$std..rt..lang_start$LT$$LP$$RP$$GT$..$u7b$$u7b$closure$u7d$$u7d$$GT$17he1188f31d27cbd1aE>:
    b860:	50                   	push   %rax
    b861:	48 89 3c 24          	mov    %rdi,(%rsp)
    b865:	58                   	pop    %rax
    b866:	c3                   	retq   
    b867:	66 0f 1f 84 00 00 00 	nopw   0x0(%rax,%rax,1)
    b86e:	00 00 

000000000000b870 <_ZN50_$LT$T$u20$as$u20$core..convert..From$LT$T$GT$$GT$4from17h75e5c24ad45256f7E>:
    b870:	50                   	push   %rax
    b871:	58                   	pop    %rax
    b872:	c3                   	retq   
    b873:	66 2e 0f 1f 84 00 00 	nopw   %cs:0x0(%rax,%rax,1)
    b87a:	00 00 00 
    b87d:	0f 1f 00             	nopl   (%rax)

000000000000b880 <_ZN54_$LT$$LP$$RP$$u20$as$u20$std..process..Termination$GT$6report17hc30a512c2e3636b2E>:
    b880:	48 83 ec 18          	sub    $0x18,%rsp
    b884:	31 ff                	xor    %edi,%edi
    b886:	e8 a5 00 00 00       	callq  b930 <_ZN68_$LT$std..process..ExitCode$u20$as$u20$std..process..Termination$GT$6report17h1a3bf63346cc2a34E>
    b88b:	89 44 24 0c          	mov    %eax,0xc(%rsp)
    b88f:	8b 44 24 0c          	mov    0xc(%rsp),%eax
    b893:	48 83 c4 18          	add    $0x18,%rsp
    b897:	c3                   	retq   
    b898:	0f 1f 84 00 00 00 00 	nopl   0x0(%rax,%rax,1)
    b89f:	00 

000000000000b8a0 <_ZN5alloc5slice29_$LT$impl$u20$$u5b$T$u5d$$GT$6to_vec17hed797875eb164b1dE>:
    b8a0:	48 83 ec 18          	sub    $0x18,%rsp
    b8a4:	48 89 f8             	mov    %rdi,%rax
    b8a7:	48 89 04 24          	mov    %rax,(%rsp)
    b8ab:	48 89 74 24 08       	mov    %rsi,0x8(%rsp)
    b8b0:	48 89 54 24 10       	mov    %rdx,0x10(%rsp)
    b8b5:	e8 16 00 00 00       	callq  b8d0 <_ZN5alloc5slice29_$LT$impl$u20$$u5b$T$u5d$$GT$9to_vec_in17ha4c8649396e2fcedE>
    b8ba:	48 8b 04 24          	mov    (%rsp),%rax
    b8be:	48 83 c4 18          	add    $0x18,%rsp
    b8c2:	c3                   	retq   
    b8c3:	66 2e 0f 1f 84 00 00 	nopw   %cs:0x0(%rax,%rax,1)
    b8ca:	00 00 00 
    b8cd:	0f 1f 00             	nopl   (%rax)

000000000000b8d0 <_ZN5alloc5slice29_$LT$impl$u20$$u5b$T$u5d$$GT$9to_vec_in17ha4c8649396e2fcedE>:
    b8d0:	48 83 ec 28          	sub    $0x28,%rsp
    b8d4:	48 89 f8             	mov    %rdi,%rax
    b8d7:	48 89 44 24 08       	mov    %rax,0x8(%rsp)
    b8dc:	48 89 74 24 10       	mov    %rsi,0x10(%rsp)
    b8e1:	48 89 54 24 18       	mov    %rdx,0x18(%rsp)
    b8e6:	e8 75 0b 00 00       	callq  c460 <_ZN5alloc5slice4hack6to_vec17hc13de73a606e86c3E>
    b8eb:	48 8b 44 24 08       	mov    0x8(%rsp),%rax
    b8f0:	48 83 c4 28          	add    $0x28,%rsp
    b8f4:	c3                   	retq   
    b8f5:	66 2e 0f 1f 84 00 00 	nopw   %cs:0x0(%rax,%rax,1)
    b8fc:	00 00 00 
    b8ff:	90                   	nop

000000000000b900 <_ZN5alloc5slice64_$LT$impl$u20$alloc..borrow..ToOwned$u20$for$u20$$u5b$T$u5d$$GT$8to_owned17hbcee989ba033c70bE>:
    b900:	48 83 ec 18          	sub    $0x18,%rsp
    b904:	48 89 f8             	mov    %rdi,%rax
    b907:	48 89 04 24          	mov    %rax,(%rsp)
    b90b:	48 89 74 24 08       	mov    %rsi,0x8(%rsp)
    b910:	48 89 54 24 10       	mov    %rdx,0x10(%rsp)
    b915:	e8 86 ff ff ff       	callq  b8a0 <_ZN5alloc5slice29_$LT$impl$u20$$u5b$T$u5d$$GT$6to_vec17hed797875eb164b1dE>
    b91a:	48 8b 04 24          	mov    (%rsp),%rax
    b91e:	48 83 c4 18          	add    $0x18,%rsp
    b922:	c3                   	retq   
    b923:	66 2e 0f 1f 84 00 00 	nopw   %cs:0x0(%rax,%rax,1)
    b92a:	00 00 00 
    b92d:	0f 1f 00             	nopl   (%rax)

000000000000b930 <_ZN68_$LT$std..process..ExitCode$u20$as$u20$std..process..Termination$GT$6report17h1a3bf63346cc2a34E>:
    b930:	50                   	push   %rax
    b931:	40 88 f8             	mov    %dil,%al
    b934:	88 44 24 07          	mov    %al,0x7(%rsp)
    b938:	48 8d 7c 24 07       	lea    0x7(%rsp),%rdi
    b93d:	e8 0e fe ff ff       	callq  b750 <_ZN3std3sys4unix7process14process_common8ExitCode6as_i3217ha9b85a1e4622ab75E>
    b942:	89 04 24             	mov    %eax,(%rsp)
    b945:	8b 04 24             	mov    (%rsp),%eax
    b948:	59                   	pop    %rcx
    b949:	c3                   	retq   
    b94a:	66 0f 1f 44 00 00    	nopw   0x0(%rax,%rax,1)

000000000000b950 <_ZN4core3ptr7mut_ptr31_$LT$impl$u20$$BP$mut$u20$T$GT$13guaranteed_eq17hf10863df7ceafc7cE>:
    b950:	48 83 ec 20          	sub    $0x20,%rsp
    b954:	48 89 7c 24 08       	mov    %rdi,0x8(%rsp)
    b959:	48 89 74 24 10       	mov    %rsi,0x10(%rsp)
    b95e:	48 39 f7             	cmp    %rsi,%rdi
    b961:	0f 94 c0             	sete   %al
    b964:	24 01                	and    $0x1,%al
    b966:	88 44 24 1f          	mov    %al,0x1f(%rsp)
    b96a:	8a 44 24 1f          	mov    0x1f(%rsp),%al
    b96e:	88 44 24 07          	mov    %al,0x7(%rsp)
    b972:	8a 44 24 07          	mov    0x7(%rsp),%al
    b976:	24 01                	and    $0x1,%al
    b978:	0f b6 c0             	movzbl %al,%eax
    b97b:	48 83 c4 20          	add    $0x20,%rsp
    b97f:	c3                   	retq   

000000000000b980 <_ZN4core3ptr7mut_ptr31_$LT$impl$u20$$BP$mut$u20$T$GT$7is_null17h92f3a93e71fb868bE>:
    b980:	48 83 ec 18          	sub    $0x18,%rsp
    b984:	48 89 7c 24 08       	mov    %rdi,0x8(%rsp)
    b989:	48 89 7c 24 10       	mov    %rdi,0x10(%rsp)
    b98e:	48 8b 7c 24 08       	mov    0x8(%rsp),%rdi
    b993:	31 c0                	xor    %eax,%eax
    b995:	89 c6                	mov    %eax,%esi
    b997:	e8 b4 ff ff ff       	callq  b950 <_ZN4core3ptr7mut_ptr31_$LT$impl$u20$$BP$mut$u20$T$GT$13guaranteed_eq17hf10863df7ceafc7cE>
    b99c:	88 44 24 07          	mov    %al,0x7(%rsp)
    b9a0:	8a 44 24 07          	mov    0x7(%rsp),%al
    b9a4:	24 01                	and    $0x1,%al
    b9a6:	0f b6 c0             	movzbl %al,%eax
    b9a9:	48 83 c4 18          	add    $0x18,%rsp
    b9ad:	c3                   	retq   
    b9ae:	66 90                	xchg   %ax,%ax

000000000000b9b0 <_ZN4core3num23_$LT$impl$u20$usize$GT$11checked_mul17h3ec0dbab3ef624f3E>:
    b9b0:	48 81 ec 88 00 00 00 	sub    $0x88,%rsp
    b9b7:	48 89 f8             	mov    %rdi,%rax
    b9ba:	48 89 44 24 28       	mov    %rax,0x28(%rsp)
    b9bf:	48 89 74 24 30       	mov    %rsi,0x30(%rsp)
    b9c4:	48 89 44 24 58       	mov    %rax,0x58(%rsp)
    b9c9:	48 89 74 24 60       	mov    %rsi,0x60(%rsp)
    b9ce:	48 f7 e6             	mul    %rsi
    b9d1:	48 89 44 24 68       	mov    %rax,0x68(%rsp)
    b9d6:	0f 90 44 24 70       	seto   0x70(%rsp)
    b9db:	48 8b 4c 24 68       	mov    0x68(%rsp),%rcx
    b9e0:	8a 44 24 70          	mov    0x70(%rsp),%al
    b9e4:	48 89 4c 24 78       	mov    %rcx,0x78(%rsp)
    b9e9:	88 84 24 87 00 00 00 	mov    %al,0x87(%rsp)
    b9f0:	48 89 4c 24 48       	mov    %rcx,0x48(%rsp)
    b9f5:	88 44 24 50          	mov    %al,0x50(%rsp)
    b9f9:	48 8b 44 24 48       	mov    0x48(%rsp),%rax
    b9fe:	48 89 44 24 08       	mov    %rax,0x8(%rsp)
    ba03:	8a 44 24 50          	mov    0x50(%rsp),%al
    ba07:	88 44 24 17          	mov    %al,0x17(%rsp)
    ba0b:	8a 44 24 17          	mov    0x17(%rsp),%al
    ba0f:	48 8b 4c 24 08       	mov    0x8(%rsp),%rcx
    ba14:	48 89 4c 24 38       	mov    %rcx,0x38(%rsp)
    ba19:	88 c1                	mov    %al,%cl
    ba1b:	80 e1 01             	and    $0x1,%cl
    ba1e:	88 4c 24 46          	mov    %cl,0x46(%rsp)
    ba22:	24 01                	and    $0x1,%al
    ba24:	88 44 24 47          	mov    %al,0x47(%rsp)
    ba28:	8a 44 24 47          	mov    0x47(%rsp),%al
    ba2c:	88 44 24 07          	mov    %al,0x7(%rsp)
    ba30:	8a 44 24 07          	mov    0x7(%rsp),%al
    ba34:	a8 01                	test   $0x1,%al
    ba36:	75 17                	jne    ba4f <_ZN4core3num23_$LT$impl$u20$usize$GT$11checked_mul17h3ec0dbab3ef624f3E+0x9f>
    ba38:	eb 00                	jmp    ba3a <_ZN4core3num23_$LT$impl$u20$usize$GT$11checked_mul17h3ec0dbab3ef624f3E+0x8a>
    ba3a:	48 8b 44 24 08       	mov    0x8(%rsp),%rax
    ba3f:	48 89 44 24 20       	mov    %rax,0x20(%rsp)
    ba44:	48 c7 44 24 18 01 00 	movq   $0x1,0x18(%rsp)
    ba4b:	00 00 
    ba4d:	eb 09                	jmp    ba58 <_ZN4core3num23_$LT$impl$u20$usize$GT$11checked_mul17h3ec0dbab3ef624f3E+0xa8>
    ba4f:	48 c7 44 24 18 00 00 	movq   $0x0,0x18(%rsp)
    ba56:	00 00 
    ba58:	48 8b 44 24 18       	mov    0x18(%rsp),%rax
    ba5d:	48 8b 54 24 20       	mov    0x20(%rsp),%rdx
    ba62:	48 81 c4 88 00 00 00 	add    $0x88,%rsp
    ba69:	c3                   	retq   
    ba6a:	66 0f 1f 44 00 00    	nopw   0x0(%rax,%rax,1)

000000000000ba70 <_ZN4core3fmt10ArgumentV13new17h607f15b00cdc437fE>:
    ba70:	48 83 ec 48          	sub    $0x48,%rsp
    ba74:	48 89 7c 24 08       	mov    %rdi,0x8(%rsp)
    ba79:	48 89 7c 24 28       	mov    %rdi,0x28(%rsp)
    ba7e:	48 89 74 24 30       	mov    %rsi,0x30(%rsp)
    ba83:	48 89 74 24 38       	mov    %rsi,0x38(%rsp)
    ba88:	48 8b 44 24 38       	mov    0x38(%rsp),%rax
    ba8d:	48 89 44 24 10       	mov    %rax,0x10(%rsp)
    ba92:	48 8b 44 24 08       	mov    0x8(%rsp),%rax
    ba97:	48 89 44 24 40       	mov    %rax,0x40(%rsp)
    ba9c:	48 8b 44 24 40       	mov    0x40(%rsp),%rax
    baa1:	48 89 04 24          	mov    %rax,(%rsp)
    baa5:	48 8b 44 24 10       	mov    0x10(%rsp),%rax
    baaa:	48 8b 0c 24          	mov    (%rsp),%rcx
    baae:	48 89 4c 24 18       	mov    %rcx,0x18(%rsp)
    bab3:	48 89 44 24 20       	mov    %rax,0x20(%rsp)
    bab8:	48 8b 44 24 18       	mov    0x18(%rsp),%rax
    babd:	48 8b 54 24 20       	mov    0x20(%rsp),%rdx
    bac2:	48 83 c4 48          	add    $0x48,%rsp
    bac6:	c3                   	retq   
    bac7:	66 0f 1f 84 00 00 00 	nopw   0x0(%rax,%rax,1)
    bace:	00 00 

000000000000bad0 <_ZN4core3fmt9Arguments6new_v117h2bc090dc88c4b213E>:
    bad0:	48 83 ec 30          	sub    $0x30,%rsp
    bad4:	48 89 f8             	mov    %rdi,%rax
    bad7:	48 89 74 24 10       	mov    %rsi,0x10(%rsp)
    badc:	48 89 54 24 18       	mov    %rdx,0x18(%rsp)
    bae1:	48 89 4c 24 20       	mov    %rcx,0x20(%rsp)
    bae6:	4c 89 44 24 28       	mov    %r8,0x28(%rsp)
    baeb:	48 c7 04 24 00 00 00 	movq   $0x0,(%rsp)
    baf2:	00 
    baf3:	48 89 37             	mov    %rsi,(%rdi)
    baf6:	48 89 57 08          	mov    %rdx,0x8(%rdi)
    bafa:	48 8b 34 24          	mov    (%rsp),%rsi
    bafe:	48 8b 54 24 08       	mov    0x8(%rsp),%rdx
    bb03:	48 89 77 10          	mov    %rsi,0x10(%rdi)
    bb07:	48 89 57 18          	mov    %rdx,0x18(%rdi)
    bb0b:	48 89 4f 20          	mov    %rcx,0x20(%rdi)
    bb0f:	4c 89 47 28          	mov    %r8,0x28(%rdi)
    bb13:	48 83 c4 30          	add    $0x30,%rsp
    bb17:	c3                   	retq   
    bb18:	0f 1f 84 00 00 00 00 	nopl   0x0(%rax,%rax,1)
    bb1f:	00 

000000000000bb20 <_ZN4core3ptr8metadata18from_raw_parts_mut17h4c3fabd84b3f399fE>:
    bb20:	48 83 ec 30          	sub    $0x30,%rsp
    bb24:	48 89 7c 24 20       	mov    %rdi,0x20(%rsp)
    bb29:	48 89 74 24 28       	mov    %rsi,0x28(%rsp)
    bb2e:	48 89 7c 24 10       	mov    %rdi,0x10(%rsp)
    bb33:	48 89 74 24 18       	mov    %rsi,0x18(%rsp)
    bb38:	48 8b 4c 24 10       	mov    0x10(%rsp),%rcx
    bb3d:	48 8b 44 24 18       	mov    0x18(%rsp),%rax
    bb42:	48 89 0c 24          	mov    %rcx,(%rsp)
    bb46:	48 89 44 24 08       	mov    %rax,0x8(%rsp)
    bb4b:	48 8b 04 24          	mov    (%rsp),%rax
    bb4f:	48 8b 54 24 08       	mov    0x8(%rsp),%rdx
    bb54:	48 83 c4 30          	add    $0x30,%rsp
    bb58:	c3                   	retq   
    bb59:	0f 1f 80 00 00 00 00 	nopl   0x0(%rax)

000000000000bb60 <_ZN4core3ptr8metadata8metadata17h843d63f2fbfa585dE>:
    bb60:	48 83 ec 20          	sub    $0x20,%rsp
    bb64:	48 89 7c 24 10       	mov    %rdi,0x10(%rsp)
    bb69:	48 89 74 24 18       	mov    %rsi,0x18(%rsp)
    bb6e:	48 89 3c 24          	mov    %rdi,(%rsp)
    bb72:	48 89 74 24 08       	mov    %rsi,0x8(%rsp)
    bb77:	48 8b 44 24 08       	mov    0x8(%rsp),%rax
    bb7c:	48 83 c4 20          	add    $0x20,%rsp
    bb80:	c3                   	retq   
    bb81:	66 2e 0f 1f 84 00 00 	nopw   %cs:0x0(%rax,%rax,1)
    bb88:	00 00 00 
    bb8b:	0f 1f 44 00 00       	nopl   0x0(%rax,%rax,1)

000000000000bb90 <_ZN5alloc5alloc12alloc_zeroed17hafb40fd2efaf40f8E>:
    bb90:	48 83 ec 28          	sub    $0x28,%rsp
    bb94:	48 89 7c 24 18       	mov    %rdi,0x18(%rsp)
    bb99:	48 89 74 24 20       	mov    %rsi,0x20(%rsp)
    bb9e:	48 8d 7c 24 18       	lea    0x18(%rsp),%rdi
    bba3:	e8 b8 ef ff ff       	callq  ab60 <_ZN4core5alloc6layout6Layout4size17h3cde56934bfa8bf2E>
    bba8:	48 89 44 24 10       	mov    %rax,0x10(%rsp)
    bbad:	48 8d 7c 24 18       	lea    0x18(%rsp),%rdi
    bbb2:	e8 b9 ef ff ff       	callq  ab70 <_ZN4core5alloc6layout6Layout5align17h6a6e6fd908bb0f87E>
    bbb7:	48 89 44 24 08       	mov    %rax,0x8(%rsp)
    bbbc:	48 8b 74 24 08       	mov    0x8(%rsp),%rsi
    bbc1:	48 8b 7c 24 10       	mov    0x10(%rsp),%rdi
    bbc6:	ff 15 0c c0 23 00    	callq  *0x23c00c(%rip)        # 247bd8 <_GLOBAL_OFFSET_TABLE_+0x230>
    bbcc:	48 89 04 24          	mov    %rax,(%rsp)
    bbd0:	48 8b 04 24          	mov    (%rsp),%rax
    bbd4:	48 83 c4 28          	add    $0x28,%rsp
    bbd8:	c3                   	retq   
    bbd9:	0f 1f 80 00 00 00 00 	nopl   0x0(%rax)

000000000000bbe0 <_ZN5alloc5alloc5alloc17h72cb76581645aca6E>:
    bbe0:	48 83 ec 28          	sub    $0x28,%rsp
    bbe4:	48 89 7c 24 18       	mov    %rdi,0x18(%rsp)
    bbe9:	48 89 74 24 20       	mov    %rsi,0x20(%rsp)
    bbee:	48 8d 7c 24 18       	lea    0x18(%rsp),%rdi
    bbf3:	e8 68 ef ff ff       	callq  ab60 <_ZN4core5alloc6layout6Layout4size17h3cde56934bfa8bf2E>
    bbf8:	48 89 44 24 10       	mov    %rax,0x10(%rsp)
    bbfd:	48 8d 7c 24 18       	lea    0x18(%rsp),%rdi
    bc02:	e8 69 ef ff ff       	callq  ab70 <_ZN4core5alloc6layout6Layout5align17h6a6e6fd908bb0f87E>
    bc07:	48 89 44 24 08       	mov    %rax,0x8(%rsp)
    bc0c:	48 8b 74 24 08       	mov    0x8(%rsp),%rsi
    bc11:	48 8b 7c 24 10       	mov    0x10(%rsp),%rdi
    bc16:	ff 15 64 bf 23 00    	callq  *0x23bf64(%rip)        # 247b80 <_GLOBAL_OFFSET_TABLE_+0x1d8>
    bc1c:	48 89 04 24          	mov    %rax,(%rsp)
    bc20:	48 8b 04 24          	mov    (%rsp),%rax
    bc24:	48 83 c4 28          	add    $0x28,%rsp
    bc28:	c3                   	retq   
    bc29:	0f 1f 80 00 00 00 00 	nopl   0x0(%rax)

000000000000bc30 <_ZN5alloc5alloc6Global10alloc_impl17h6a842f0bbe26db20E>:
    bc30:	48 81 ec a8 00 00 00 	sub    $0xa8,%rsp
    bc37:	88 c8                	mov    %cl,%al
    bc39:	88 44 24 3f          	mov    %al,0x3f(%rsp)
    bc3d:	48 89 74 24 48       	mov    %rsi,0x48(%rsp)
    bc42:	48 89 54 24 50       	mov    %rdx,0x50(%rsp)
    bc47:	48 89 7c 24 78       	mov    %rdi,0x78(%rsp)
    bc4c:	24 01                	and    $0x1,%al
    bc4e:	88 84 24 87 00 00 00 	mov    %al,0x87(%rsp)
    bc55:	48 8d 7c 24 48       	lea    0x48(%rsp),%rdi
    bc5a:	e8 01 ef ff ff       	callq  ab60 <_ZN4core5alloc6layout6Layout4size17h3cde56934bfa8bf2E>
    bc5f:	48 89 44 24 40       	mov    %rax,0x40(%rsp)
    bc64:	48 8b 44 24 40       	mov    0x40(%rsp),%rax
    bc69:	48 83 f8 00          	cmp    $0x0,%rax
    bc6d:	75 14                	jne    bc83 <_ZN5alloc5alloc6Global10alloc_impl17h6a842f0bbe26db20E+0x53>
    bc6f:	48 8d 7c 24 48       	lea    0x48(%rsp),%rdi
    bc74:	e8 e7 f1 ff ff       	callq  ae60 <_ZN4core5alloc6layout6Layout8dangling17h16d56b70b122496bE>
    bc79:	48 89 44 24 30       	mov    %rax,0x30(%rsp)
    bc7e:	e9 ec 00 00 00       	jmpq   bd6f <_ZN5alloc5alloc6Global10alloc_impl17h6a842f0bbe26db20E+0x13f>
    bc83:	8a 44 24 3f          	mov    0x3f(%rsp),%al
    bc87:	48 8b 4c 24 40       	mov    0x40(%rsp),%rcx
    bc8c:	48 89 8c 24 90 00 00 	mov    %rcx,0x90(%rsp)
    bc93:	00 
    bc94:	a8 01                	test   $0x1,%al
    bc96:	75 16                	jne    bcae <_ZN5alloc5alloc6Global10alloc_impl17h6a842f0bbe26db20E+0x7e>
    bc98:	48 8b 7c 24 48       	mov    0x48(%rsp),%rdi
    bc9d:	48 8b 74 24 50       	mov    0x50(%rsp),%rsi
    bca2:	e8 39 ff ff ff       	callq  bbe0 <_ZN5alloc5alloc5alloc17h72cb76581645aca6E>
    bca7:	48 89 44 24 68       	mov    %rax,0x68(%rsp)
    bcac:	eb 27                	jmp    bcd5 <_ZN5alloc5alloc6Global10alloc_impl17h6a842f0bbe26db20E+0xa5>
    bcae:	48 8b 7c 24 48       	mov    0x48(%rsp),%rdi
    bcb3:	48 8b 74 24 50       	mov    0x50(%rsp),%rsi
    bcb8:	e8 d3 fe ff ff       	callq  bb90 <_ZN5alloc5alloc12alloc_zeroed17hafb40fd2efaf40f8E>
    bcbd:	48 89 44 24 68       	mov    %rax,0x68(%rsp)
    bcc2:	eb 00                	jmp    bcc4 <_ZN5alloc5alloc6Global10alloc_impl17h6a842f0bbe26db20E+0x94>
    bcc4:	48 8b 7c 24 68       	mov    0x68(%rsp),%rdi
    bcc9:	e8 e2 04 00 00       	callq  c1b0 <_ZN4core3ptr8non_null16NonNull$LT$T$GT$3new17h88af239726e191ccE>
    bcce:	48 89 44 24 28       	mov    %rax,0x28(%rsp)
    bcd3:	eb 02                	jmp    bcd7 <_ZN5alloc5alloc6Global10alloc_impl17h6a842f0bbe26db20E+0xa7>
    bcd5:	eb ed                	jmp    bcc4 <_ZN5alloc5alloc6Global10alloc_impl17h6a842f0bbe26db20E+0x94>
    bcd7:	48 8b 7c 24 28       	mov    0x28(%rsp),%rdi
    bcdc:	e8 7f 0b 00 00       	callq  c860 <_ZN4core6option15Option$LT$T$GT$5ok_or17hf293027500ba0c82E>
    bce1:	48 89 44 24 20       	mov    %rax,0x20(%rsp)
    bce6:	48 8b 7c 24 20       	mov    0x20(%rsp),%rdi
    bceb:	e8 b0 03 00 00       	callq  c0a0 <_ZN79_$LT$core..result..Result$LT$T$C$E$GT$$u20$as$u20$core..ops..try_trait..Try$GT$6branch17h596514e95fda2f8dE>
    bcf0:	48 89 44 24 70       	mov    %rax,0x70(%rsp)
    bcf5:	48 8b 44 24 70       	mov    0x70(%rsp),%rax
    bcfa:	48 85 c0             	test   %rax,%rax
    bcfd:	0f 94 c0             	sete   %al
    bd00:	0f b6 c0             	movzbl %al,%eax
    bd03:	75 06                	jne    bd0b <_ZN5alloc5alloc6Global10alloc_impl17h6a842f0bbe26db20E+0xdb>
    bd05:	eb 00                	jmp    bd07 <_ZN5alloc5alloc6Global10alloc_impl17h6a842f0bbe26db20E+0xd7>
    bd07:	eb 2d                	jmp    bd36 <_ZN5alloc5alloc6Global10alloc_impl17h6a842f0bbe26db20E+0x106>
    bd09:	0f 0b                	ud2    
    bd0b:	48 8b 74 24 40       	mov    0x40(%rsp),%rsi
    bd10:	48 8b 7c 24 70       	mov    0x70(%rsp),%rdi
    bd15:	48 89 bc 24 98 00 00 	mov    %rdi,0x98(%rsp)
    bd1c:	00 
    bd1d:	48 89 bc 24 a0 00 00 	mov    %rdi,0xa0(%rsp)
    bd24:	00 
    bd25:	e8 46 05 00 00       	callq  c270 <_ZN4core3ptr8non_null26NonNull$LT$$u5b$T$u5d$$GT$20slice_from_raw_parts17h57695717ed69f130E>
    bd2a:	48 89 44 24 10       	mov    %rax,0x10(%rsp)
    bd2f:	48 89 54 24 18       	mov    %rdx,0x18(%rsp)
    bd34:	eb 23                	jmp    bd59 <_ZN5alloc5alloc6Global10alloc_impl17h6a842f0bbe26db20E+0x129>
    bd36:	e8 d5 01 00 00       	callq  bf10 <_ZN153_$LT$core..result..Result$LT$T$C$F$GT$$u20$as$u20$core..ops..try_trait..FromResidual$LT$core..result..Result$LT$core..convert..Infallible$C$E$GT$$GT$$GT$13from_residual17h7adc435c0f8cde2dE>
    bd3b:	48 89 54 24 60       	mov    %rdx,0x60(%rsp)
    bd40:	48 89 44 24 58       	mov    %rax,0x58(%rsp)
    bd45:	eb 00                	jmp    bd47 <_ZN5alloc5alloc6Global10alloc_impl17h6a842f0bbe26db20E+0x117>
    bd47:	48 8b 44 24 58       	mov    0x58(%rsp),%rax
    bd4c:	48 8b 54 24 60       	mov    0x60(%rsp),%rdx
    bd51:	48 81 c4 a8 00 00 00 	add    $0xa8,%rsp
    bd58:	c3                   	retq   
    bd59:	48 8b 44 24 18       	mov    0x18(%rsp),%rax
    bd5e:	48 8b 4c 24 10       	mov    0x10(%rsp),%rcx
    bd63:	48 89 4c 24 58       	mov    %rcx,0x58(%rsp)
    bd68:	48 89 44 24 60       	mov    %rax,0x60(%rsp)
    bd6d:	eb d8                	jmp    bd47 <_ZN5alloc5alloc6Global10alloc_impl17h6a842f0bbe26db20E+0x117>
    bd6f:	48 8b 7c 24 30       	mov    0x30(%rsp),%rdi
    bd74:	31 c0                	xor    %eax,%eax
    bd76:	89 c6                	mov    %eax,%esi
    bd78:	e8 f3 04 00 00       	callq  c270 <_ZN4core3ptr8non_null26NonNull$LT$$u5b$T$u5d$$GT$20slice_from_raw_parts17h57695717ed69f130E>
    bd7d:	48 89 04 24          	mov    %rax,(%rsp)
    bd81:	48 89 54 24 08       	mov    %rdx,0x8(%rsp)
